ARM GAS  /tmp/ccKBEJwZ.s 			page 1


   1              		.cpu cortex-m7
   2              		.arch armv7e-m
   3              		.fpu fpv5-d16
   4              		.eabi_attribute 28, 1
   5              		.eabi_attribute 20, 1
   6              		.eabi_attribute 21, 1
   7              		.eabi_attribute 23, 3
   8              		.eabi_attribute 24, 1
   9              		.eabi_attribute 25, 1
  10              		.eabi_attribute 26, 1
  11              		.eabi_attribute 30, 1
  12              		.eabi_attribute 34, 1
  13              		.eabi_attribute 18, 4
  14              		.file	"usbh_hid.c"
  15              		.text
  16              	.Ltext0:
  17              		.cfi_sections	.debug_frame
  18              		.file 1 "Middlewares/ST/STM32_USB_Host_Library/Class/HID/Src/usbh_hid.c"
  19              		.section	.text.USBH_HID_SOFProcess,"ax",%progbits
  20              		.align	1
  21              		.syntax unified
  22              		.thumb
  23              		.thumb_func
  25              	USBH_HID_SOFProcess:
  26              	.LVL0:
  27              	.LFB335:
   1:Middlewares/ST/STM32_USB_Host_Library/Class/HID/Src/usbh_hid.c **** /**
   2:Middlewares/ST/STM32_USB_Host_Library/Class/HID/Src/usbh_hid.c ****   ******************************************************************************
   3:Middlewares/ST/STM32_USB_Host_Library/Class/HID/Src/usbh_hid.c ****   * @file    usbh_hid.c
   4:Middlewares/ST/STM32_USB_Host_Library/Class/HID/Src/usbh_hid.c ****   * @author  MCD Application Team
   5:Middlewares/ST/STM32_USB_Host_Library/Class/HID/Src/usbh_hid.c ****   * @brief   This file is the HID Layer Handlers for USB Host HID class.
   6:Middlewares/ST/STM32_USB_Host_Library/Class/HID/Src/usbh_hid.c ****   *
   7:Middlewares/ST/STM32_USB_Host_Library/Class/HID/Src/usbh_hid.c ****   * @verbatim
   8:Middlewares/ST/STM32_USB_Host_Library/Class/HID/Src/usbh_hid.c ****   *
   9:Middlewares/ST/STM32_USB_Host_Library/Class/HID/Src/usbh_hid.c ****   *          ===================================================================
  10:Middlewares/ST/STM32_USB_Host_Library/Class/HID/Src/usbh_hid.c ****   *                                HID Class  Description
  11:Middlewares/ST/STM32_USB_Host_Library/Class/HID/Src/usbh_hid.c ****   *          ===================================================================
  12:Middlewares/ST/STM32_USB_Host_Library/Class/HID/Src/usbh_hid.c ****   *           This module manages the HID class V1.11 following the "Device Class Definition
  13:Middlewares/ST/STM32_USB_Host_Library/Class/HID/Src/usbh_hid.c ****   *           for Human Interface Devices (HID) Version 1.11 Jun 27, 2001".
  14:Middlewares/ST/STM32_USB_Host_Library/Class/HID/Src/usbh_hid.c ****   *           This driver implements the following aspects of the specification:
  15:Middlewares/ST/STM32_USB_Host_Library/Class/HID/Src/usbh_hid.c ****   *             - The Boot Interface Subclass
  16:Middlewares/ST/STM32_USB_Host_Library/Class/HID/Src/usbh_hid.c ****   *             - The Mouse and Keyboard protocols
  17:Middlewares/ST/STM32_USB_Host_Library/Class/HID/Src/usbh_hid.c ****   *
  18:Middlewares/ST/STM32_USB_Host_Library/Class/HID/Src/usbh_hid.c ****   *  @endverbatim
  19:Middlewares/ST/STM32_USB_Host_Library/Class/HID/Src/usbh_hid.c ****   *
  20:Middlewares/ST/STM32_USB_Host_Library/Class/HID/Src/usbh_hid.c ****   ******************************************************************************
  21:Middlewares/ST/STM32_USB_Host_Library/Class/HID/Src/usbh_hid.c ****   * @attention
  22:Middlewares/ST/STM32_USB_Host_Library/Class/HID/Src/usbh_hid.c ****   *
  23:Middlewares/ST/STM32_USB_Host_Library/Class/HID/Src/usbh_hid.c ****   * <h2><center>&copy; Copyright (c) 2015 STMicroelectronics.
  24:Middlewares/ST/STM32_USB_Host_Library/Class/HID/Src/usbh_hid.c ****   * All rights reserved.</center></h2>
  25:Middlewares/ST/STM32_USB_Host_Library/Class/HID/Src/usbh_hid.c ****   *
  26:Middlewares/ST/STM32_USB_Host_Library/Class/HID/Src/usbh_hid.c ****   * This software component is licensed by ST under Ultimate Liberty license
  27:Middlewares/ST/STM32_USB_Host_Library/Class/HID/Src/usbh_hid.c ****   * SLA0044, the "License"; You may not use this file except in compliance with
  28:Middlewares/ST/STM32_USB_Host_Library/Class/HID/Src/usbh_hid.c ****   * the License. You may obtain a copy of the License at:
  29:Middlewares/ST/STM32_USB_Host_Library/Class/HID/Src/usbh_hid.c ****   *                      www.st.com/SLA0044
  30:Middlewares/ST/STM32_USB_Host_Library/Class/HID/Src/usbh_hid.c ****   *
  31:Middlewares/ST/STM32_USB_Host_Library/Class/HID/Src/usbh_hid.c ****   ******************************************************************************
ARM GAS  /tmp/ccKBEJwZ.s 			page 2


  32:Middlewares/ST/STM32_USB_Host_Library/Class/HID/Src/usbh_hid.c ****   */
  33:Middlewares/ST/STM32_USB_Host_Library/Class/HID/Src/usbh_hid.c **** 
  34:Middlewares/ST/STM32_USB_Host_Library/Class/HID/Src/usbh_hid.c **** /* BSPDependencies
  35:Middlewares/ST/STM32_USB_Host_Library/Class/HID/Src/usbh_hid.c **** - "stm32xxxxx_{eval}{discovery}{nucleo_144}.c"
  36:Middlewares/ST/STM32_USB_Host_Library/Class/HID/Src/usbh_hid.c **** - "stm32xxxxx_{eval}{discovery}_io.c"
  37:Middlewares/ST/STM32_USB_Host_Library/Class/HID/Src/usbh_hid.c **** - "stm32xxxxx_{eval}{discovery}{adafruit}_lcd.c"
  38:Middlewares/ST/STM32_USB_Host_Library/Class/HID/Src/usbh_hid.c **** - "stm32xxxxx_{eval}{discovery}_sdram.c"
  39:Middlewares/ST/STM32_USB_Host_Library/Class/HID/Src/usbh_hid.c **** EndBSPDependencies */
  40:Middlewares/ST/STM32_USB_Host_Library/Class/HID/Src/usbh_hid.c **** 
  41:Middlewares/ST/STM32_USB_Host_Library/Class/HID/Src/usbh_hid.c **** /* Includes ------------------------------------------------------------------*/
  42:Middlewares/ST/STM32_USB_Host_Library/Class/HID/Src/usbh_hid.c **** #include "usbh_hid.h"
  43:Middlewares/ST/STM32_USB_Host_Library/Class/HID/Src/usbh_hid.c **** #include "usbh_hid_parser.h"
  44:Middlewares/ST/STM32_USB_Host_Library/Class/HID/Src/usbh_hid.c **** 
  45:Middlewares/ST/STM32_USB_Host_Library/Class/HID/Src/usbh_hid.c **** 
  46:Middlewares/ST/STM32_USB_Host_Library/Class/HID/Src/usbh_hid.c **** /** @addtogroup USBH_LIB
  47:Middlewares/ST/STM32_USB_Host_Library/Class/HID/Src/usbh_hid.c **** * @{
  48:Middlewares/ST/STM32_USB_Host_Library/Class/HID/Src/usbh_hid.c **** */
  49:Middlewares/ST/STM32_USB_Host_Library/Class/HID/Src/usbh_hid.c **** 
  50:Middlewares/ST/STM32_USB_Host_Library/Class/HID/Src/usbh_hid.c **** /** @addtogroup USBH_CLASS
  51:Middlewares/ST/STM32_USB_Host_Library/Class/HID/Src/usbh_hid.c **** * @{
  52:Middlewares/ST/STM32_USB_Host_Library/Class/HID/Src/usbh_hid.c **** */
  53:Middlewares/ST/STM32_USB_Host_Library/Class/HID/Src/usbh_hid.c **** 
  54:Middlewares/ST/STM32_USB_Host_Library/Class/HID/Src/usbh_hid.c **** /** @addtogroup USBH_HID_CLASS
  55:Middlewares/ST/STM32_USB_Host_Library/Class/HID/Src/usbh_hid.c **** * @{
  56:Middlewares/ST/STM32_USB_Host_Library/Class/HID/Src/usbh_hid.c **** */
  57:Middlewares/ST/STM32_USB_Host_Library/Class/HID/Src/usbh_hid.c **** 
  58:Middlewares/ST/STM32_USB_Host_Library/Class/HID/Src/usbh_hid.c **** /** @defgroup USBH_HID_CORE
  59:Middlewares/ST/STM32_USB_Host_Library/Class/HID/Src/usbh_hid.c **** * @brief    This file includes HID Layer Handlers for USB Host HID class.
  60:Middlewares/ST/STM32_USB_Host_Library/Class/HID/Src/usbh_hid.c **** * @{
  61:Middlewares/ST/STM32_USB_Host_Library/Class/HID/Src/usbh_hid.c **** */
  62:Middlewares/ST/STM32_USB_Host_Library/Class/HID/Src/usbh_hid.c **** 
  63:Middlewares/ST/STM32_USB_Host_Library/Class/HID/Src/usbh_hid.c **** /** @defgroup USBH_HID_CORE_Private_TypesDefinitions
  64:Middlewares/ST/STM32_USB_Host_Library/Class/HID/Src/usbh_hid.c **** * @{
  65:Middlewares/ST/STM32_USB_Host_Library/Class/HID/Src/usbh_hid.c **** */
  66:Middlewares/ST/STM32_USB_Host_Library/Class/HID/Src/usbh_hid.c **** /**
  67:Middlewares/ST/STM32_USB_Host_Library/Class/HID/Src/usbh_hid.c **** * @}
  68:Middlewares/ST/STM32_USB_Host_Library/Class/HID/Src/usbh_hid.c **** */
  69:Middlewares/ST/STM32_USB_Host_Library/Class/HID/Src/usbh_hid.c **** 
  70:Middlewares/ST/STM32_USB_Host_Library/Class/HID/Src/usbh_hid.c **** 
  71:Middlewares/ST/STM32_USB_Host_Library/Class/HID/Src/usbh_hid.c **** /** @defgroup USBH_HID_CORE_Private_Defines
  72:Middlewares/ST/STM32_USB_Host_Library/Class/HID/Src/usbh_hid.c **** * @{
  73:Middlewares/ST/STM32_USB_Host_Library/Class/HID/Src/usbh_hid.c **** */
  74:Middlewares/ST/STM32_USB_Host_Library/Class/HID/Src/usbh_hid.c **** /**
  75:Middlewares/ST/STM32_USB_Host_Library/Class/HID/Src/usbh_hid.c **** * @}
  76:Middlewares/ST/STM32_USB_Host_Library/Class/HID/Src/usbh_hid.c **** */
  77:Middlewares/ST/STM32_USB_Host_Library/Class/HID/Src/usbh_hid.c **** 
  78:Middlewares/ST/STM32_USB_Host_Library/Class/HID/Src/usbh_hid.c **** 
  79:Middlewares/ST/STM32_USB_Host_Library/Class/HID/Src/usbh_hid.c **** /** @defgroup USBH_HID_CORE_Private_Macros
  80:Middlewares/ST/STM32_USB_Host_Library/Class/HID/Src/usbh_hid.c **** * @{
  81:Middlewares/ST/STM32_USB_Host_Library/Class/HID/Src/usbh_hid.c **** */
  82:Middlewares/ST/STM32_USB_Host_Library/Class/HID/Src/usbh_hid.c **** /**
  83:Middlewares/ST/STM32_USB_Host_Library/Class/HID/Src/usbh_hid.c **** * @}
  84:Middlewares/ST/STM32_USB_Host_Library/Class/HID/Src/usbh_hid.c **** */
  85:Middlewares/ST/STM32_USB_Host_Library/Class/HID/Src/usbh_hid.c **** 
  86:Middlewares/ST/STM32_USB_Host_Library/Class/HID/Src/usbh_hid.c **** 
  87:Middlewares/ST/STM32_USB_Host_Library/Class/HID/Src/usbh_hid.c **** /** @defgroup USBH_HID_CORE_Private_Variables
  88:Middlewares/ST/STM32_USB_Host_Library/Class/HID/Src/usbh_hid.c **** * @{
ARM GAS  /tmp/ccKBEJwZ.s 			page 3


  89:Middlewares/ST/STM32_USB_Host_Library/Class/HID/Src/usbh_hid.c **** */
  90:Middlewares/ST/STM32_USB_Host_Library/Class/HID/Src/usbh_hid.c **** 
  91:Middlewares/ST/STM32_USB_Host_Library/Class/HID/Src/usbh_hid.c **** /**
  92:Middlewares/ST/STM32_USB_Host_Library/Class/HID/Src/usbh_hid.c **** * @}
  93:Middlewares/ST/STM32_USB_Host_Library/Class/HID/Src/usbh_hid.c **** */
  94:Middlewares/ST/STM32_USB_Host_Library/Class/HID/Src/usbh_hid.c **** 
  95:Middlewares/ST/STM32_USB_Host_Library/Class/HID/Src/usbh_hid.c **** 
  96:Middlewares/ST/STM32_USB_Host_Library/Class/HID/Src/usbh_hid.c **** /** @defgroup USBH_HID_CORE_Private_FunctionPrototypes
  97:Middlewares/ST/STM32_USB_Host_Library/Class/HID/Src/usbh_hid.c **** * @{
  98:Middlewares/ST/STM32_USB_Host_Library/Class/HID/Src/usbh_hid.c **** */
  99:Middlewares/ST/STM32_USB_Host_Library/Class/HID/Src/usbh_hid.c **** 
 100:Middlewares/ST/STM32_USB_Host_Library/Class/HID/Src/usbh_hid.c **** static USBH_StatusTypeDef USBH_HID_InterfaceInit(USBH_HandleTypeDef *phost);
 101:Middlewares/ST/STM32_USB_Host_Library/Class/HID/Src/usbh_hid.c **** static USBH_StatusTypeDef USBH_HID_InterfaceDeInit(USBH_HandleTypeDef *phost);
 102:Middlewares/ST/STM32_USB_Host_Library/Class/HID/Src/usbh_hid.c **** static USBH_StatusTypeDef USBH_HID_ClassRequest(USBH_HandleTypeDef *phost);
 103:Middlewares/ST/STM32_USB_Host_Library/Class/HID/Src/usbh_hid.c **** static USBH_StatusTypeDef USBH_HID_Process(USBH_HandleTypeDef *phost);
 104:Middlewares/ST/STM32_USB_Host_Library/Class/HID/Src/usbh_hid.c **** static USBH_StatusTypeDef USBH_HID_SOFProcess(USBH_HandleTypeDef *phost);
 105:Middlewares/ST/STM32_USB_Host_Library/Class/HID/Src/usbh_hid.c **** static void  USBH_HID_ParseHIDDesc(HID_DescTypeDef *desc, uint8_t *buf);
 106:Middlewares/ST/STM32_USB_Host_Library/Class/HID/Src/usbh_hid.c **** 
 107:Middlewares/ST/STM32_USB_Host_Library/Class/HID/Src/usbh_hid.c **** extern USBH_StatusTypeDef USBH_HID_MouseInit(USBH_HandleTypeDef *phost);
 108:Middlewares/ST/STM32_USB_Host_Library/Class/HID/Src/usbh_hid.c **** extern USBH_StatusTypeDef USBH_HID_KeybdInit(USBH_HandleTypeDef *phost);
 109:Middlewares/ST/STM32_USB_Host_Library/Class/HID/Src/usbh_hid.c **** 
 110:Middlewares/ST/STM32_USB_Host_Library/Class/HID/Src/usbh_hid.c **** USBH_ClassTypeDef  HID_Class =
 111:Middlewares/ST/STM32_USB_Host_Library/Class/HID/Src/usbh_hid.c **** {
 112:Middlewares/ST/STM32_USB_Host_Library/Class/HID/Src/usbh_hid.c ****   "HID",
 113:Middlewares/ST/STM32_USB_Host_Library/Class/HID/Src/usbh_hid.c ****   USB_HID_CLASS,
 114:Middlewares/ST/STM32_USB_Host_Library/Class/HID/Src/usbh_hid.c ****   USBH_HID_InterfaceInit,
 115:Middlewares/ST/STM32_USB_Host_Library/Class/HID/Src/usbh_hid.c ****   USBH_HID_InterfaceDeInit,
 116:Middlewares/ST/STM32_USB_Host_Library/Class/HID/Src/usbh_hid.c ****   USBH_HID_ClassRequest,
 117:Middlewares/ST/STM32_USB_Host_Library/Class/HID/Src/usbh_hid.c ****   USBH_HID_Process,
 118:Middlewares/ST/STM32_USB_Host_Library/Class/HID/Src/usbh_hid.c ****   USBH_HID_SOFProcess,
 119:Middlewares/ST/STM32_USB_Host_Library/Class/HID/Src/usbh_hid.c ****   NULL,
 120:Middlewares/ST/STM32_USB_Host_Library/Class/HID/Src/usbh_hid.c **** };
 121:Middlewares/ST/STM32_USB_Host_Library/Class/HID/Src/usbh_hid.c **** /**
 122:Middlewares/ST/STM32_USB_Host_Library/Class/HID/Src/usbh_hid.c **** * @}
 123:Middlewares/ST/STM32_USB_Host_Library/Class/HID/Src/usbh_hid.c **** */
 124:Middlewares/ST/STM32_USB_Host_Library/Class/HID/Src/usbh_hid.c **** 
 125:Middlewares/ST/STM32_USB_Host_Library/Class/HID/Src/usbh_hid.c **** 
 126:Middlewares/ST/STM32_USB_Host_Library/Class/HID/Src/usbh_hid.c **** /** @defgroup USBH_HID_CORE_Private_Functions
 127:Middlewares/ST/STM32_USB_Host_Library/Class/HID/Src/usbh_hid.c **** * @{
 128:Middlewares/ST/STM32_USB_Host_Library/Class/HID/Src/usbh_hid.c **** */
 129:Middlewares/ST/STM32_USB_Host_Library/Class/HID/Src/usbh_hid.c **** 
 130:Middlewares/ST/STM32_USB_Host_Library/Class/HID/Src/usbh_hid.c **** 
 131:Middlewares/ST/STM32_USB_Host_Library/Class/HID/Src/usbh_hid.c **** /**
 132:Middlewares/ST/STM32_USB_Host_Library/Class/HID/Src/usbh_hid.c ****   * @brief  USBH_HID_InterfaceInit
 133:Middlewares/ST/STM32_USB_Host_Library/Class/HID/Src/usbh_hid.c ****   *         The function init the HID class.
 134:Middlewares/ST/STM32_USB_Host_Library/Class/HID/Src/usbh_hid.c ****   * @param  phost: Host handle
 135:Middlewares/ST/STM32_USB_Host_Library/Class/HID/Src/usbh_hid.c ****   * @retval USBH Status
 136:Middlewares/ST/STM32_USB_Host_Library/Class/HID/Src/usbh_hid.c ****   */
 137:Middlewares/ST/STM32_USB_Host_Library/Class/HID/Src/usbh_hid.c **** static USBH_StatusTypeDef USBH_HID_InterfaceInit(USBH_HandleTypeDef *phost)
 138:Middlewares/ST/STM32_USB_Host_Library/Class/HID/Src/usbh_hid.c **** {
 139:Middlewares/ST/STM32_USB_Host_Library/Class/HID/Src/usbh_hid.c ****   USBH_StatusTypeDef status;
 140:Middlewares/ST/STM32_USB_Host_Library/Class/HID/Src/usbh_hid.c ****   HID_HandleTypeDef *HID_Handle;
 141:Middlewares/ST/STM32_USB_Host_Library/Class/HID/Src/usbh_hid.c ****   uint8_t max_ep;
 142:Middlewares/ST/STM32_USB_Host_Library/Class/HID/Src/usbh_hid.c ****   uint8_t num = 0U;
 143:Middlewares/ST/STM32_USB_Host_Library/Class/HID/Src/usbh_hid.c ****   uint8_t interface;
 144:Middlewares/ST/STM32_USB_Host_Library/Class/HID/Src/usbh_hid.c **** 
 145:Middlewares/ST/STM32_USB_Host_Library/Class/HID/Src/usbh_hid.c ****   interface = USBH_FindInterface(phost, phost->pActiveClass->ClassCode, HID_BOOT_CODE, 0xFFU);
ARM GAS  /tmp/ccKBEJwZ.s 			page 4


 146:Middlewares/ST/STM32_USB_Host_Library/Class/HID/Src/usbh_hid.c **** 
 147:Middlewares/ST/STM32_USB_Host_Library/Class/HID/Src/usbh_hid.c ****   if ((interface == 0xFFU) || (interface >= USBH_MAX_NUM_INTERFACES)) /* No Valid Interface */
 148:Middlewares/ST/STM32_USB_Host_Library/Class/HID/Src/usbh_hid.c ****   {
 149:Middlewares/ST/STM32_USB_Host_Library/Class/HID/Src/usbh_hid.c ****     USBH_DbgLog("Cannot Find the interface for %s class.", phost->pActiveClass->Name);
 150:Middlewares/ST/STM32_USB_Host_Library/Class/HID/Src/usbh_hid.c ****     return USBH_FAIL;
 151:Middlewares/ST/STM32_USB_Host_Library/Class/HID/Src/usbh_hid.c ****   }
 152:Middlewares/ST/STM32_USB_Host_Library/Class/HID/Src/usbh_hid.c **** 
 153:Middlewares/ST/STM32_USB_Host_Library/Class/HID/Src/usbh_hid.c ****   status = USBH_SelectInterface(phost, interface);
 154:Middlewares/ST/STM32_USB_Host_Library/Class/HID/Src/usbh_hid.c **** 
 155:Middlewares/ST/STM32_USB_Host_Library/Class/HID/Src/usbh_hid.c ****   if (status != USBH_OK)
 156:Middlewares/ST/STM32_USB_Host_Library/Class/HID/Src/usbh_hid.c ****   {
 157:Middlewares/ST/STM32_USB_Host_Library/Class/HID/Src/usbh_hid.c ****     return USBH_FAIL;
 158:Middlewares/ST/STM32_USB_Host_Library/Class/HID/Src/usbh_hid.c ****   }
 159:Middlewares/ST/STM32_USB_Host_Library/Class/HID/Src/usbh_hid.c **** 
 160:Middlewares/ST/STM32_USB_Host_Library/Class/HID/Src/usbh_hid.c ****   phost->pActiveClass->pData = (HID_HandleTypeDef *)USBH_malloc(sizeof(HID_HandleTypeDef));
 161:Middlewares/ST/STM32_USB_Host_Library/Class/HID/Src/usbh_hid.c ****   HID_Handle = (HID_HandleTypeDef *) phost->pActiveClass->pData;
 162:Middlewares/ST/STM32_USB_Host_Library/Class/HID/Src/usbh_hid.c **** 
 163:Middlewares/ST/STM32_USB_Host_Library/Class/HID/Src/usbh_hid.c ****   if (HID_Handle == NULL)
 164:Middlewares/ST/STM32_USB_Host_Library/Class/HID/Src/usbh_hid.c ****   {
 165:Middlewares/ST/STM32_USB_Host_Library/Class/HID/Src/usbh_hid.c ****     USBH_DbgLog("Cannot allocate memory for HID Handle");
 166:Middlewares/ST/STM32_USB_Host_Library/Class/HID/Src/usbh_hid.c ****     return USBH_FAIL;
 167:Middlewares/ST/STM32_USB_Host_Library/Class/HID/Src/usbh_hid.c ****   }
 168:Middlewares/ST/STM32_USB_Host_Library/Class/HID/Src/usbh_hid.c **** 
 169:Middlewares/ST/STM32_USB_Host_Library/Class/HID/Src/usbh_hid.c ****   /* Initialize hid handler */
 170:Middlewares/ST/STM32_USB_Host_Library/Class/HID/Src/usbh_hid.c ****   USBH_memset(HID_Handle, 0, sizeof(HID_HandleTypeDef));
 171:Middlewares/ST/STM32_USB_Host_Library/Class/HID/Src/usbh_hid.c **** 
 172:Middlewares/ST/STM32_USB_Host_Library/Class/HID/Src/usbh_hid.c ****   HID_Handle->state = HID_ERROR;
 173:Middlewares/ST/STM32_USB_Host_Library/Class/HID/Src/usbh_hid.c **** 
 174:Middlewares/ST/STM32_USB_Host_Library/Class/HID/Src/usbh_hid.c ****   /*Decode Bootclass Protocol: Mouse or Keyboard*/
 175:Middlewares/ST/STM32_USB_Host_Library/Class/HID/Src/usbh_hid.c ****   if (phost->device.CfgDesc.Itf_Desc[interface].bInterfaceProtocol == HID_KEYBRD_BOOT_CODE)
 176:Middlewares/ST/STM32_USB_Host_Library/Class/HID/Src/usbh_hid.c ****   {
 177:Middlewares/ST/STM32_USB_Host_Library/Class/HID/Src/usbh_hid.c ****     USBH_UsrLog("KeyBoard device found!");
 178:Middlewares/ST/STM32_USB_Host_Library/Class/HID/Src/usbh_hid.c ****     HID_Handle->Init = USBH_HID_KeybdInit;
 179:Middlewares/ST/STM32_USB_Host_Library/Class/HID/Src/usbh_hid.c ****   }
 180:Middlewares/ST/STM32_USB_Host_Library/Class/HID/Src/usbh_hid.c ****   else if (phost->device.CfgDesc.Itf_Desc[interface].bInterfaceProtocol  == HID_MOUSE_BOOT_CODE)
 181:Middlewares/ST/STM32_USB_Host_Library/Class/HID/Src/usbh_hid.c ****   {
 182:Middlewares/ST/STM32_USB_Host_Library/Class/HID/Src/usbh_hid.c ****     USBH_UsrLog("Mouse device found!");
 183:Middlewares/ST/STM32_USB_Host_Library/Class/HID/Src/usbh_hid.c ****     HID_Handle->Init = USBH_HID_MouseInit;
 184:Middlewares/ST/STM32_USB_Host_Library/Class/HID/Src/usbh_hid.c ****   }
 185:Middlewares/ST/STM32_USB_Host_Library/Class/HID/Src/usbh_hid.c ****   else
 186:Middlewares/ST/STM32_USB_Host_Library/Class/HID/Src/usbh_hid.c ****   {
 187:Middlewares/ST/STM32_USB_Host_Library/Class/HID/Src/usbh_hid.c ****     USBH_UsrLog("Protocol not supported.");
 188:Middlewares/ST/STM32_USB_Host_Library/Class/HID/Src/usbh_hid.c ****     return USBH_FAIL;
 189:Middlewares/ST/STM32_USB_Host_Library/Class/HID/Src/usbh_hid.c ****   }
 190:Middlewares/ST/STM32_USB_Host_Library/Class/HID/Src/usbh_hid.c **** 
 191:Middlewares/ST/STM32_USB_Host_Library/Class/HID/Src/usbh_hid.c ****   HID_Handle->state     = HID_INIT;
 192:Middlewares/ST/STM32_USB_Host_Library/Class/HID/Src/usbh_hid.c ****   HID_Handle->ctl_state = HID_REQ_INIT;
 193:Middlewares/ST/STM32_USB_Host_Library/Class/HID/Src/usbh_hid.c ****   HID_Handle->ep_addr   = phost->device.CfgDesc.Itf_Desc[interface].Ep_Desc[0].bEndpointAddress;
 194:Middlewares/ST/STM32_USB_Host_Library/Class/HID/Src/usbh_hid.c ****   HID_Handle->length    = phost->device.CfgDesc.Itf_Desc[interface].Ep_Desc[0].wMaxPacketSize;
 195:Middlewares/ST/STM32_USB_Host_Library/Class/HID/Src/usbh_hid.c ****   HID_Handle->poll      = phost->device.CfgDesc.Itf_Desc[interface].Ep_Desc[0].bInterval;
 196:Middlewares/ST/STM32_USB_Host_Library/Class/HID/Src/usbh_hid.c **** 
 197:Middlewares/ST/STM32_USB_Host_Library/Class/HID/Src/usbh_hid.c ****   if (HID_Handle->poll  < HID_MIN_POLL)
 198:Middlewares/ST/STM32_USB_Host_Library/Class/HID/Src/usbh_hid.c ****   {
 199:Middlewares/ST/STM32_USB_Host_Library/Class/HID/Src/usbh_hid.c ****     HID_Handle->poll = HID_MIN_POLL;
 200:Middlewares/ST/STM32_USB_Host_Library/Class/HID/Src/usbh_hid.c ****   }
 201:Middlewares/ST/STM32_USB_Host_Library/Class/HID/Src/usbh_hid.c **** 
 202:Middlewares/ST/STM32_USB_Host_Library/Class/HID/Src/usbh_hid.c ****   /* Check fo available number of endpoints */
ARM GAS  /tmp/ccKBEJwZ.s 			page 5


 203:Middlewares/ST/STM32_USB_Host_Library/Class/HID/Src/usbh_hid.c ****   /* Find the number of EPs in the Interface Descriptor */
 204:Middlewares/ST/STM32_USB_Host_Library/Class/HID/Src/usbh_hid.c ****   /* Choose the lower number in order not to overrun the buffer allocated */
 205:Middlewares/ST/STM32_USB_Host_Library/Class/HID/Src/usbh_hid.c ****   max_ep = ((phost->device.CfgDesc.Itf_Desc[interface].bNumEndpoints <= USBH_MAX_NUM_ENDPOINTS) ?
 206:Middlewares/ST/STM32_USB_Host_Library/Class/HID/Src/usbh_hid.c ****              phost->device.CfgDesc.Itf_Desc[interface].bNumEndpoints : USBH_MAX_NUM_ENDPOINTS);
 207:Middlewares/ST/STM32_USB_Host_Library/Class/HID/Src/usbh_hid.c **** 
 208:Middlewares/ST/STM32_USB_Host_Library/Class/HID/Src/usbh_hid.c **** 
 209:Middlewares/ST/STM32_USB_Host_Library/Class/HID/Src/usbh_hid.c ****   /* Decode endpoint IN and OUT address from interface descriptor */
 210:Middlewares/ST/STM32_USB_Host_Library/Class/HID/Src/usbh_hid.c ****   for (num = 0U; num < max_ep; num++)
 211:Middlewares/ST/STM32_USB_Host_Library/Class/HID/Src/usbh_hid.c ****   {
 212:Middlewares/ST/STM32_USB_Host_Library/Class/HID/Src/usbh_hid.c ****     if (phost->device.CfgDesc.Itf_Desc[interface].Ep_Desc[num].bEndpointAddress & 0x80U)
 213:Middlewares/ST/STM32_USB_Host_Library/Class/HID/Src/usbh_hid.c ****     {
 214:Middlewares/ST/STM32_USB_Host_Library/Class/HID/Src/usbh_hid.c ****       HID_Handle->InEp = (phost->device.CfgDesc.Itf_Desc[interface].Ep_Desc[num].bEndpointAddress);
 215:Middlewares/ST/STM32_USB_Host_Library/Class/HID/Src/usbh_hid.c ****       HID_Handle->InPipe = USBH_AllocPipe(phost, HID_Handle->InEp);
 216:Middlewares/ST/STM32_USB_Host_Library/Class/HID/Src/usbh_hid.c **** 
 217:Middlewares/ST/STM32_USB_Host_Library/Class/HID/Src/usbh_hid.c ****       /* Open pipe for IN endpoint */
 218:Middlewares/ST/STM32_USB_Host_Library/Class/HID/Src/usbh_hid.c ****       USBH_OpenPipe(phost, HID_Handle->InPipe, HID_Handle->InEp, phost->device.address,
 219:Middlewares/ST/STM32_USB_Host_Library/Class/HID/Src/usbh_hid.c ****                     phost->device.speed, USB_EP_TYPE_INTR, HID_Handle->length);
 220:Middlewares/ST/STM32_USB_Host_Library/Class/HID/Src/usbh_hid.c **** 
 221:Middlewares/ST/STM32_USB_Host_Library/Class/HID/Src/usbh_hid.c ****       USBH_LL_SetToggle(phost, HID_Handle->InPipe, 0U);
 222:Middlewares/ST/STM32_USB_Host_Library/Class/HID/Src/usbh_hid.c ****     }
 223:Middlewares/ST/STM32_USB_Host_Library/Class/HID/Src/usbh_hid.c ****     else
 224:Middlewares/ST/STM32_USB_Host_Library/Class/HID/Src/usbh_hid.c ****     {
 225:Middlewares/ST/STM32_USB_Host_Library/Class/HID/Src/usbh_hid.c ****       HID_Handle->OutEp = (phost->device.CfgDesc.Itf_Desc[interface].Ep_Desc[num].bEndpointAddress)
 226:Middlewares/ST/STM32_USB_Host_Library/Class/HID/Src/usbh_hid.c ****       HID_Handle->OutPipe  = USBH_AllocPipe(phost, HID_Handle->OutEp);
 227:Middlewares/ST/STM32_USB_Host_Library/Class/HID/Src/usbh_hid.c **** 
 228:Middlewares/ST/STM32_USB_Host_Library/Class/HID/Src/usbh_hid.c ****       /* Open pipe for OUT endpoint */
 229:Middlewares/ST/STM32_USB_Host_Library/Class/HID/Src/usbh_hid.c ****       USBH_OpenPipe(phost, HID_Handle->OutPipe, HID_Handle->OutEp, phost->device.address,
 230:Middlewares/ST/STM32_USB_Host_Library/Class/HID/Src/usbh_hid.c ****                     phost->device.speed, USB_EP_TYPE_INTR, HID_Handle->length);
 231:Middlewares/ST/STM32_USB_Host_Library/Class/HID/Src/usbh_hid.c **** 
 232:Middlewares/ST/STM32_USB_Host_Library/Class/HID/Src/usbh_hid.c ****       USBH_LL_SetToggle(phost, HID_Handle->OutPipe, 0U);
 233:Middlewares/ST/STM32_USB_Host_Library/Class/HID/Src/usbh_hid.c ****     }
 234:Middlewares/ST/STM32_USB_Host_Library/Class/HID/Src/usbh_hid.c ****   }
 235:Middlewares/ST/STM32_USB_Host_Library/Class/HID/Src/usbh_hid.c **** 
 236:Middlewares/ST/STM32_USB_Host_Library/Class/HID/Src/usbh_hid.c ****   return USBH_OK;
 237:Middlewares/ST/STM32_USB_Host_Library/Class/HID/Src/usbh_hid.c **** }
 238:Middlewares/ST/STM32_USB_Host_Library/Class/HID/Src/usbh_hid.c **** 
 239:Middlewares/ST/STM32_USB_Host_Library/Class/HID/Src/usbh_hid.c **** /**
 240:Middlewares/ST/STM32_USB_Host_Library/Class/HID/Src/usbh_hid.c ****   * @brief  USBH_HID_InterfaceDeInit
 241:Middlewares/ST/STM32_USB_Host_Library/Class/HID/Src/usbh_hid.c ****   *         The function DeInit the Pipes used for the HID class.
 242:Middlewares/ST/STM32_USB_Host_Library/Class/HID/Src/usbh_hid.c ****   * @param  phost: Host handle
 243:Middlewares/ST/STM32_USB_Host_Library/Class/HID/Src/usbh_hid.c ****   * @retval USBH Status
 244:Middlewares/ST/STM32_USB_Host_Library/Class/HID/Src/usbh_hid.c ****   */
 245:Middlewares/ST/STM32_USB_Host_Library/Class/HID/Src/usbh_hid.c **** static USBH_StatusTypeDef USBH_HID_InterfaceDeInit(USBH_HandleTypeDef *phost)
 246:Middlewares/ST/STM32_USB_Host_Library/Class/HID/Src/usbh_hid.c **** {
 247:Middlewares/ST/STM32_USB_Host_Library/Class/HID/Src/usbh_hid.c ****   HID_HandleTypeDef *HID_Handle = (HID_HandleTypeDef *) phost->pActiveClass->pData;
 248:Middlewares/ST/STM32_USB_Host_Library/Class/HID/Src/usbh_hid.c **** 
 249:Middlewares/ST/STM32_USB_Host_Library/Class/HID/Src/usbh_hid.c ****   if (HID_Handle->InPipe != 0x00U)
 250:Middlewares/ST/STM32_USB_Host_Library/Class/HID/Src/usbh_hid.c ****   {
 251:Middlewares/ST/STM32_USB_Host_Library/Class/HID/Src/usbh_hid.c ****     USBH_ClosePipe(phost, HID_Handle->InPipe);
 252:Middlewares/ST/STM32_USB_Host_Library/Class/HID/Src/usbh_hid.c ****     USBH_FreePipe(phost, HID_Handle->InPipe);
 253:Middlewares/ST/STM32_USB_Host_Library/Class/HID/Src/usbh_hid.c ****     HID_Handle->InPipe = 0U;     /* Reset the pipe as Free */
 254:Middlewares/ST/STM32_USB_Host_Library/Class/HID/Src/usbh_hid.c ****   }
 255:Middlewares/ST/STM32_USB_Host_Library/Class/HID/Src/usbh_hid.c **** 
 256:Middlewares/ST/STM32_USB_Host_Library/Class/HID/Src/usbh_hid.c ****   if (HID_Handle->OutPipe != 0x00U)
 257:Middlewares/ST/STM32_USB_Host_Library/Class/HID/Src/usbh_hid.c ****   {
 258:Middlewares/ST/STM32_USB_Host_Library/Class/HID/Src/usbh_hid.c ****     USBH_ClosePipe(phost, HID_Handle->OutPipe);
 259:Middlewares/ST/STM32_USB_Host_Library/Class/HID/Src/usbh_hid.c ****     USBH_FreePipe(phost, HID_Handle->OutPipe);
ARM GAS  /tmp/ccKBEJwZ.s 			page 6


 260:Middlewares/ST/STM32_USB_Host_Library/Class/HID/Src/usbh_hid.c ****     HID_Handle->OutPipe = 0U;     /* Reset the pipe as Free */
 261:Middlewares/ST/STM32_USB_Host_Library/Class/HID/Src/usbh_hid.c ****   }
 262:Middlewares/ST/STM32_USB_Host_Library/Class/HID/Src/usbh_hid.c **** 
 263:Middlewares/ST/STM32_USB_Host_Library/Class/HID/Src/usbh_hid.c ****   if (phost->pActiveClass->pData)
 264:Middlewares/ST/STM32_USB_Host_Library/Class/HID/Src/usbh_hid.c ****   {
 265:Middlewares/ST/STM32_USB_Host_Library/Class/HID/Src/usbh_hid.c ****     USBH_free(phost->pActiveClass->pData);
 266:Middlewares/ST/STM32_USB_Host_Library/Class/HID/Src/usbh_hid.c ****     phost->pActiveClass->pData = 0U;
 267:Middlewares/ST/STM32_USB_Host_Library/Class/HID/Src/usbh_hid.c ****   }
 268:Middlewares/ST/STM32_USB_Host_Library/Class/HID/Src/usbh_hid.c **** 
 269:Middlewares/ST/STM32_USB_Host_Library/Class/HID/Src/usbh_hid.c ****   return USBH_OK;
 270:Middlewares/ST/STM32_USB_Host_Library/Class/HID/Src/usbh_hid.c **** }
 271:Middlewares/ST/STM32_USB_Host_Library/Class/HID/Src/usbh_hid.c **** 
 272:Middlewares/ST/STM32_USB_Host_Library/Class/HID/Src/usbh_hid.c **** /**
 273:Middlewares/ST/STM32_USB_Host_Library/Class/HID/Src/usbh_hid.c ****   * @brief  USBH_HID_ClassRequest
 274:Middlewares/ST/STM32_USB_Host_Library/Class/HID/Src/usbh_hid.c ****   *         The function is responsible for handling Standard requests
 275:Middlewares/ST/STM32_USB_Host_Library/Class/HID/Src/usbh_hid.c ****   *         for HID class.
 276:Middlewares/ST/STM32_USB_Host_Library/Class/HID/Src/usbh_hid.c ****   * @param  phost: Host handle
 277:Middlewares/ST/STM32_USB_Host_Library/Class/HID/Src/usbh_hid.c ****   * @retval USBH Status
 278:Middlewares/ST/STM32_USB_Host_Library/Class/HID/Src/usbh_hid.c ****   */
 279:Middlewares/ST/STM32_USB_Host_Library/Class/HID/Src/usbh_hid.c **** static USBH_StatusTypeDef USBH_HID_ClassRequest(USBH_HandleTypeDef *phost)
 280:Middlewares/ST/STM32_USB_Host_Library/Class/HID/Src/usbh_hid.c **** {
 281:Middlewares/ST/STM32_USB_Host_Library/Class/HID/Src/usbh_hid.c **** 
 282:Middlewares/ST/STM32_USB_Host_Library/Class/HID/Src/usbh_hid.c ****   USBH_StatusTypeDef status         = USBH_BUSY;
 283:Middlewares/ST/STM32_USB_Host_Library/Class/HID/Src/usbh_hid.c ****   USBH_StatusTypeDef classReqStatus = USBH_BUSY;
 284:Middlewares/ST/STM32_USB_Host_Library/Class/HID/Src/usbh_hid.c ****   HID_HandleTypeDef *HID_Handle = (HID_HandleTypeDef *) phost->pActiveClass->pData;
 285:Middlewares/ST/STM32_USB_Host_Library/Class/HID/Src/usbh_hid.c **** 
 286:Middlewares/ST/STM32_USB_Host_Library/Class/HID/Src/usbh_hid.c ****   /* Switch HID state machine */
 287:Middlewares/ST/STM32_USB_Host_Library/Class/HID/Src/usbh_hid.c ****   switch (HID_Handle->ctl_state)
 288:Middlewares/ST/STM32_USB_Host_Library/Class/HID/Src/usbh_hid.c ****   {
 289:Middlewares/ST/STM32_USB_Host_Library/Class/HID/Src/usbh_hid.c ****   case HID_REQ_INIT:
 290:Middlewares/ST/STM32_USB_Host_Library/Class/HID/Src/usbh_hid.c ****   case HID_REQ_GET_HID_DESC:
 291:Middlewares/ST/STM32_USB_Host_Library/Class/HID/Src/usbh_hid.c **** 
 292:Middlewares/ST/STM32_USB_Host_Library/Class/HID/Src/usbh_hid.c ****     USBH_HID_ParseHIDDesc(&HID_Handle->HID_Desc, phost->device.CfgDesc_Raw);
 293:Middlewares/ST/STM32_USB_Host_Library/Class/HID/Src/usbh_hid.c **** 
 294:Middlewares/ST/STM32_USB_Host_Library/Class/HID/Src/usbh_hid.c ****     HID_Handle->ctl_state = HID_REQ_GET_REPORT_DESC;
 295:Middlewares/ST/STM32_USB_Host_Library/Class/HID/Src/usbh_hid.c **** 
 296:Middlewares/ST/STM32_USB_Host_Library/Class/HID/Src/usbh_hid.c ****     break;
 297:Middlewares/ST/STM32_USB_Host_Library/Class/HID/Src/usbh_hid.c ****   case HID_REQ_GET_REPORT_DESC:
 298:Middlewares/ST/STM32_USB_Host_Library/Class/HID/Src/usbh_hid.c **** 
 299:Middlewares/ST/STM32_USB_Host_Library/Class/HID/Src/usbh_hid.c ****     /* Get Report Desc */
 300:Middlewares/ST/STM32_USB_Host_Library/Class/HID/Src/usbh_hid.c ****     classReqStatus = USBH_HID_GetHIDReportDescriptor(phost, HID_Handle->HID_Desc.wItemLength);
 301:Middlewares/ST/STM32_USB_Host_Library/Class/HID/Src/usbh_hid.c ****     if (classReqStatus == USBH_OK)
 302:Middlewares/ST/STM32_USB_Host_Library/Class/HID/Src/usbh_hid.c ****     {
 303:Middlewares/ST/STM32_USB_Host_Library/Class/HID/Src/usbh_hid.c ****       /* The descriptor is available in phost->device.Data */
 304:Middlewares/ST/STM32_USB_Host_Library/Class/HID/Src/usbh_hid.c ****       HID_Handle->ctl_state = HID_REQ_SET_IDLE;
 305:Middlewares/ST/STM32_USB_Host_Library/Class/HID/Src/usbh_hid.c ****     }
 306:Middlewares/ST/STM32_USB_Host_Library/Class/HID/Src/usbh_hid.c ****     else if (classReqStatus == USBH_NOT_SUPPORTED)
 307:Middlewares/ST/STM32_USB_Host_Library/Class/HID/Src/usbh_hid.c ****     {
 308:Middlewares/ST/STM32_USB_Host_Library/Class/HID/Src/usbh_hid.c ****       USBH_ErrLog("Control error: HID: Device Get Report Descriptor request failed");
 309:Middlewares/ST/STM32_USB_Host_Library/Class/HID/Src/usbh_hid.c ****       status = USBH_FAIL;
 310:Middlewares/ST/STM32_USB_Host_Library/Class/HID/Src/usbh_hid.c ****     }
 311:Middlewares/ST/STM32_USB_Host_Library/Class/HID/Src/usbh_hid.c ****     else
 312:Middlewares/ST/STM32_USB_Host_Library/Class/HID/Src/usbh_hid.c ****     {
 313:Middlewares/ST/STM32_USB_Host_Library/Class/HID/Src/usbh_hid.c ****       /* .. */
 314:Middlewares/ST/STM32_USB_Host_Library/Class/HID/Src/usbh_hid.c ****     }
 315:Middlewares/ST/STM32_USB_Host_Library/Class/HID/Src/usbh_hid.c **** 
 316:Middlewares/ST/STM32_USB_Host_Library/Class/HID/Src/usbh_hid.c ****     break;
ARM GAS  /tmp/ccKBEJwZ.s 			page 7


 317:Middlewares/ST/STM32_USB_Host_Library/Class/HID/Src/usbh_hid.c **** 
 318:Middlewares/ST/STM32_USB_Host_Library/Class/HID/Src/usbh_hid.c ****   case HID_REQ_SET_IDLE:
 319:Middlewares/ST/STM32_USB_Host_Library/Class/HID/Src/usbh_hid.c **** 
 320:Middlewares/ST/STM32_USB_Host_Library/Class/HID/Src/usbh_hid.c ****     classReqStatus = USBH_HID_SetIdle(phost, 0U, 0U);
 321:Middlewares/ST/STM32_USB_Host_Library/Class/HID/Src/usbh_hid.c **** 
 322:Middlewares/ST/STM32_USB_Host_Library/Class/HID/Src/usbh_hid.c ****     /* set Idle */
 323:Middlewares/ST/STM32_USB_Host_Library/Class/HID/Src/usbh_hid.c ****     if (classReqStatus == USBH_OK)
 324:Middlewares/ST/STM32_USB_Host_Library/Class/HID/Src/usbh_hid.c ****     {
 325:Middlewares/ST/STM32_USB_Host_Library/Class/HID/Src/usbh_hid.c ****       HID_Handle->ctl_state = HID_REQ_SET_PROTOCOL;
 326:Middlewares/ST/STM32_USB_Host_Library/Class/HID/Src/usbh_hid.c ****     }
 327:Middlewares/ST/STM32_USB_Host_Library/Class/HID/Src/usbh_hid.c ****     else
 328:Middlewares/ST/STM32_USB_Host_Library/Class/HID/Src/usbh_hid.c ****     {
 329:Middlewares/ST/STM32_USB_Host_Library/Class/HID/Src/usbh_hid.c ****       if (classReqStatus == USBH_NOT_SUPPORTED)
 330:Middlewares/ST/STM32_USB_Host_Library/Class/HID/Src/usbh_hid.c ****       {
 331:Middlewares/ST/STM32_USB_Host_Library/Class/HID/Src/usbh_hid.c ****         HID_Handle->ctl_state = HID_REQ_SET_PROTOCOL;
 332:Middlewares/ST/STM32_USB_Host_Library/Class/HID/Src/usbh_hid.c ****       }
 333:Middlewares/ST/STM32_USB_Host_Library/Class/HID/Src/usbh_hid.c ****     }
 334:Middlewares/ST/STM32_USB_Host_Library/Class/HID/Src/usbh_hid.c ****     break;
 335:Middlewares/ST/STM32_USB_Host_Library/Class/HID/Src/usbh_hid.c **** 
 336:Middlewares/ST/STM32_USB_Host_Library/Class/HID/Src/usbh_hid.c ****   case HID_REQ_SET_PROTOCOL:
 337:Middlewares/ST/STM32_USB_Host_Library/Class/HID/Src/usbh_hid.c ****     /* set protocol */
 338:Middlewares/ST/STM32_USB_Host_Library/Class/HID/Src/usbh_hid.c ****     classReqStatus = USBH_HID_SetProtocol(phost, 0U);
 339:Middlewares/ST/STM32_USB_Host_Library/Class/HID/Src/usbh_hid.c ****     if (classReqStatus == USBH_OK)
 340:Middlewares/ST/STM32_USB_Host_Library/Class/HID/Src/usbh_hid.c ****     {
 341:Middlewares/ST/STM32_USB_Host_Library/Class/HID/Src/usbh_hid.c ****       HID_Handle->ctl_state = HID_REQ_IDLE;
 342:Middlewares/ST/STM32_USB_Host_Library/Class/HID/Src/usbh_hid.c **** 
 343:Middlewares/ST/STM32_USB_Host_Library/Class/HID/Src/usbh_hid.c ****       /* all requests performed*/
 344:Middlewares/ST/STM32_USB_Host_Library/Class/HID/Src/usbh_hid.c ****       phost->pUser(phost, HOST_USER_CLASS_ACTIVE);
 345:Middlewares/ST/STM32_USB_Host_Library/Class/HID/Src/usbh_hid.c ****       status = USBH_OK;
 346:Middlewares/ST/STM32_USB_Host_Library/Class/HID/Src/usbh_hid.c ****     }
 347:Middlewares/ST/STM32_USB_Host_Library/Class/HID/Src/usbh_hid.c ****     else if (classReqStatus == USBH_NOT_SUPPORTED)
 348:Middlewares/ST/STM32_USB_Host_Library/Class/HID/Src/usbh_hid.c ****     {
 349:Middlewares/ST/STM32_USB_Host_Library/Class/HID/Src/usbh_hid.c ****       USBH_ErrLog("Control error: HID: Device Set protocol request failed");
 350:Middlewares/ST/STM32_USB_Host_Library/Class/HID/Src/usbh_hid.c ****       status = USBH_FAIL;
 351:Middlewares/ST/STM32_USB_Host_Library/Class/HID/Src/usbh_hid.c ****     }
 352:Middlewares/ST/STM32_USB_Host_Library/Class/HID/Src/usbh_hid.c ****     else
 353:Middlewares/ST/STM32_USB_Host_Library/Class/HID/Src/usbh_hid.c ****     {
 354:Middlewares/ST/STM32_USB_Host_Library/Class/HID/Src/usbh_hid.c ****       /* .. */
 355:Middlewares/ST/STM32_USB_Host_Library/Class/HID/Src/usbh_hid.c ****     }
 356:Middlewares/ST/STM32_USB_Host_Library/Class/HID/Src/usbh_hid.c ****     break;
 357:Middlewares/ST/STM32_USB_Host_Library/Class/HID/Src/usbh_hid.c **** 
 358:Middlewares/ST/STM32_USB_Host_Library/Class/HID/Src/usbh_hid.c ****   case HID_REQ_IDLE:
 359:Middlewares/ST/STM32_USB_Host_Library/Class/HID/Src/usbh_hid.c ****   default:
 360:Middlewares/ST/STM32_USB_Host_Library/Class/HID/Src/usbh_hid.c ****     break;
 361:Middlewares/ST/STM32_USB_Host_Library/Class/HID/Src/usbh_hid.c ****   }
 362:Middlewares/ST/STM32_USB_Host_Library/Class/HID/Src/usbh_hid.c **** 
 363:Middlewares/ST/STM32_USB_Host_Library/Class/HID/Src/usbh_hid.c ****   return status;
 364:Middlewares/ST/STM32_USB_Host_Library/Class/HID/Src/usbh_hid.c **** }
 365:Middlewares/ST/STM32_USB_Host_Library/Class/HID/Src/usbh_hid.c **** 
 366:Middlewares/ST/STM32_USB_Host_Library/Class/HID/Src/usbh_hid.c **** /**
 367:Middlewares/ST/STM32_USB_Host_Library/Class/HID/Src/usbh_hid.c ****   * @brief  USBH_HID_Process
 368:Middlewares/ST/STM32_USB_Host_Library/Class/HID/Src/usbh_hid.c ****   *         The function is for managing state machine for HID data transfers
 369:Middlewares/ST/STM32_USB_Host_Library/Class/HID/Src/usbh_hid.c ****   * @param  phost: Host handle
 370:Middlewares/ST/STM32_USB_Host_Library/Class/HID/Src/usbh_hid.c ****   * @retval USBH Status
 371:Middlewares/ST/STM32_USB_Host_Library/Class/HID/Src/usbh_hid.c ****   */
 372:Middlewares/ST/STM32_USB_Host_Library/Class/HID/Src/usbh_hid.c **** static USBH_StatusTypeDef USBH_HID_Process(USBH_HandleTypeDef *phost)
 373:Middlewares/ST/STM32_USB_Host_Library/Class/HID/Src/usbh_hid.c **** {
ARM GAS  /tmp/ccKBEJwZ.s 			page 8


 374:Middlewares/ST/STM32_USB_Host_Library/Class/HID/Src/usbh_hid.c ****   USBH_StatusTypeDef status = USBH_OK;
 375:Middlewares/ST/STM32_USB_Host_Library/Class/HID/Src/usbh_hid.c ****   HID_HandleTypeDef *HID_Handle = (HID_HandleTypeDef *) phost->pActiveClass->pData;
 376:Middlewares/ST/STM32_USB_Host_Library/Class/HID/Src/usbh_hid.c ****   uint32_t XferSize;
 377:Middlewares/ST/STM32_USB_Host_Library/Class/HID/Src/usbh_hid.c **** 
 378:Middlewares/ST/STM32_USB_Host_Library/Class/HID/Src/usbh_hid.c ****   switch (HID_Handle->state)
 379:Middlewares/ST/STM32_USB_Host_Library/Class/HID/Src/usbh_hid.c ****   {
 380:Middlewares/ST/STM32_USB_Host_Library/Class/HID/Src/usbh_hid.c ****     case HID_INIT:
 381:Middlewares/ST/STM32_USB_Host_Library/Class/HID/Src/usbh_hid.c ****       HID_Handle->Init(phost);
 382:Middlewares/ST/STM32_USB_Host_Library/Class/HID/Src/usbh_hid.c ****       HID_Handle->state = HID_IDLE;
 383:Middlewares/ST/STM32_USB_Host_Library/Class/HID/Src/usbh_hid.c **** 
 384:Middlewares/ST/STM32_USB_Host_Library/Class/HID/Src/usbh_hid.c **** #if (USBH_USE_OS == 1U)
 385:Middlewares/ST/STM32_USB_Host_Library/Class/HID/Src/usbh_hid.c ****       phost->os_msg = (uint32_t)USBH_URB_EVENT;
 386:Middlewares/ST/STM32_USB_Host_Library/Class/HID/Src/usbh_hid.c **** #if (osCMSIS < 0x20000U)
 387:Middlewares/ST/STM32_USB_Host_Library/Class/HID/Src/usbh_hid.c ****       (void)osMessagePut(phost->os_event, phost->os_msg, 0U);
 388:Middlewares/ST/STM32_USB_Host_Library/Class/HID/Src/usbh_hid.c **** #else
 389:Middlewares/ST/STM32_USB_Host_Library/Class/HID/Src/usbh_hid.c ****       (void)osMessageQueuePut(phost->os_event, &phost->os_msg, 0U, NULL);
 390:Middlewares/ST/STM32_USB_Host_Library/Class/HID/Src/usbh_hid.c **** #endif
 391:Middlewares/ST/STM32_USB_Host_Library/Class/HID/Src/usbh_hid.c **** #endif
 392:Middlewares/ST/STM32_USB_Host_Library/Class/HID/Src/usbh_hid.c ****       break;
 393:Middlewares/ST/STM32_USB_Host_Library/Class/HID/Src/usbh_hid.c **** 
 394:Middlewares/ST/STM32_USB_Host_Library/Class/HID/Src/usbh_hid.c ****     case HID_IDLE:
 395:Middlewares/ST/STM32_USB_Host_Library/Class/HID/Src/usbh_hid.c ****       status = USBH_HID_GetReport(phost, 0x01U, 0U, HID_Handle->pData, (uint8_t)HID_Handle->length)
 396:Middlewares/ST/STM32_USB_Host_Library/Class/HID/Src/usbh_hid.c ****       if (status == USBH_OK)
 397:Middlewares/ST/STM32_USB_Host_Library/Class/HID/Src/usbh_hid.c ****       {
 398:Middlewares/ST/STM32_USB_Host_Library/Class/HID/Src/usbh_hid.c ****         HID_Handle->state = HID_SYNC;
 399:Middlewares/ST/STM32_USB_Host_Library/Class/HID/Src/usbh_hid.c ****       }
 400:Middlewares/ST/STM32_USB_Host_Library/Class/HID/Src/usbh_hid.c ****       else if (status == USBH_BUSY)
 401:Middlewares/ST/STM32_USB_Host_Library/Class/HID/Src/usbh_hid.c ****       {
 402:Middlewares/ST/STM32_USB_Host_Library/Class/HID/Src/usbh_hid.c ****         HID_Handle->state = HID_IDLE;
 403:Middlewares/ST/STM32_USB_Host_Library/Class/HID/Src/usbh_hid.c ****         status = USBH_OK;
 404:Middlewares/ST/STM32_USB_Host_Library/Class/HID/Src/usbh_hid.c ****       }
 405:Middlewares/ST/STM32_USB_Host_Library/Class/HID/Src/usbh_hid.c ****       else if (status == USBH_NOT_SUPPORTED)
 406:Middlewares/ST/STM32_USB_Host_Library/Class/HID/Src/usbh_hid.c ****       {
 407:Middlewares/ST/STM32_USB_Host_Library/Class/HID/Src/usbh_hid.c ****         HID_Handle->state = HID_SYNC;
 408:Middlewares/ST/STM32_USB_Host_Library/Class/HID/Src/usbh_hid.c ****         status = USBH_OK;
 409:Middlewares/ST/STM32_USB_Host_Library/Class/HID/Src/usbh_hid.c ****       }
 410:Middlewares/ST/STM32_USB_Host_Library/Class/HID/Src/usbh_hid.c ****       else
 411:Middlewares/ST/STM32_USB_Host_Library/Class/HID/Src/usbh_hid.c ****       {
 412:Middlewares/ST/STM32_USB_Host_Library/Class/HID/Src/usbh_hid.c ****         HID_Handle->state = HID_ERROR;
 413:Middlewares/ST/STM32_USB_Host_Library/Class/HID/Src/usbh_hid.c ****         status = USBH_FAIL;
 414:Middlewares/ST/STM32_USB_Host_Library/Class/HID/Src/usbh_hid.c ****       }
 415:Middlewares/ST/STM32_USB_Host_Library/Class/HID/Src/usbh_hid.c **** 
 416:Middlewares/ST/STM32_USB_Host_Library/Class/HID/Src/usbh_hid.c **** #if (USBH_USE_OS == 1U)
 417:Middlewares/ST/STM32_USB_Host_Library/Class/HID/Src/usbh_hid.c ****       phost->os_msg = (uint32_t)USBH_URB_EVENT;
 418:Middlewares/ST/STM32_USB_Host_Library/Class/HID/Src/usbh_hid.c **** #if (osCMSIS < 0x20000U)
 419:Middlewares/ST/STM32_USB_Host_Library/Class/HID/Src/usbh_hid.c ****       (void)osMessagePut(phost->os_event, phost->os_msg, 0U);
 420:Middlewares/ST/STM32_USB_Host_Library/Class/HID/Src/usbh_hid.c **** #else
 421:Middlewares/ST/STM32_USB_Host_Library/Class/HID/Src/usbh_hid.c ****       (void)osMessageQueuePut(phost->os_event, &phost->os_msg, 0U, NULL);
 422:Middlewares/ST/STM32_USB_Host_Library/Class/HID/Src/usbh_hid.c **** #endif
 423:Middlewares/ST/STM32_USB_Host_Library/Class/HID/Src/usbh_hid.c **** #endif
 424:Middlewares/ST/STM32_USB_Host_Library/Class/HID/Src/usbh_hid.c ****       break;
 425:Middlewares/ST/STM32_USB_Host_Library/Class/HID/Src/usbh_hid.c **** 
 426:Middlewares/ST/STM32_USB_Host_Library/Class/HID/Src/usbh_hid.c ****     case HID_SYNC:
 427:Middlewares/ST/STM32_USB_Host_Library/Class/HID/Src/usbh_hid.c ****       /* Sync with start of Even Frame */
 428:Middlewares/ST/STM32_USB_Host_Library/Class/HID/Src/usbh_hid.c ****       if (phost->Timer & 1U)
 429:Middlewares/ST/STM32_USB_Host_Library/Class/HID/Src/usbh_hid.c ****       {
 430:Middlewares/ST/STM32_USB_Host_Library/Class/HID/Src/usbh_hid.c ****         HID_Handle->state = HID_GET_DATA;
ARM GAS  /tmp/ccKBEJwZ.s 			page 9


 431:Middlewares/ST/STM32_USB_Host_Library/Class/HID/Src/usbh_hid.c ****       }
 432:Middlewares/ST/STM32_USB_Host_Library/Class/HID/Src/usbh_hid.c **** 
 433:Middlewares/ST/STM32_USB_Host_Library/Class/HID/Src/usbh_hid.c **** #if (USBH_USE_OS == 1U)
 434:Middlewares/ST/STM32_USB_Host_Library/Class/HID/Src/usbh_hid.c ****       phost->os_msg = (uint32_t)USBH_URB_EVENT;
 435:Middlewares/ST/STM32_USB_Host_Library/Class/HID/Src/usbh_hid.c **** #if (osCMSIS < 0x20000U)
 436:Middlewares/ST/STM32_USB_Host_Library/Class/HID/Src/usbh_hid.c ****       (void)osMessagePut(phost->os_event, phost->os_msg, 0U);
 437:Middlewares/ST/STM32_USB_Host_Library/Class/HID/Src/usbh_hid.c **** #else
 438:Middlewares/ST/STM32_USB_Host_Library/Class/HID/Src/usbh_hid.c ****       (void)osMessageQueuePut(phost->os_event, &phost->os_msg, 0U, NULL);
 439:Middlewares/ST/STM32_USB_Host_Library/Class/HID/Src/usbh_hid.c **** #endif
 440:Middlewares/ST/STM32_USB_Host_Library/Class/HID/Src/usbh_hid.c **** #endif
 441:Middlewares/ST/STM32_USB_Host_Library/Class/HID/Src/usbh_hid.c ****       break;
 442:Middlewares/ST/STM32_USB_Host_Library/Class/HID/Src/usbh_hid.c **** 
 443:Middlewares/ST/STM32_USB_Host_Library/Class/HID/Src/usbh_hid.c ****     case HID_GET_DATA:
 444:Middlewares/ST/STM32_USB_Host_Library/Class/HID/Src/usbh_hid.c ****       USBH_InterruptReceiveData(phost, HID_Handle->pData,
 445:Middlewares/ST/STM32_USB_Host_Library/Class/HID/Src/usbh_hid.c ****                                 (uint8_t)HID_Handle->length,
 446:Middlewares/ST/STM32_USB_Host_Library/Class/HID/Src/usbh_hid.c ****                                 HID_Handle->InPipe);
 447:Middlewares/ST/STM32_USB_Host_Library/Class/HID/Src/usbh_hid.c **** 
 448:Middlewares/ST/STM32_USB_Host_Library/Class/HID/Src/usbh_hid.c ****       HID_Handle->state = HID_POLL;
 449:Middlewares/ST/STM32_USB_Host_Library/Class/HID/Src/usbh_hid.c ****       HID_Handle->timer = phost->Timer;
 450:Middlewares/ST/STM32_USB_Host_Library/Class/HID/Src/usbh_hid.c ****       HID_Handle->DataReady = 0U;
 451:Middlewares/ST/STM32_USB_Host_Library/Class/HID/Src/usbh_hid.c ****       break;
 452:Middlewares/ST/STM32_USB_Host_Library/Class/HID/Src/usbh_hid.c **** 
 453:Middlewares/ST/STM32_USB_Host_Library/Class/HID/Src/usbh_hid.c ****     case HID_POLL:
 454:Middlewares/ST/STM32_USB_Host_Library/Class/HID/Src/usbh_hid.c ****       if (USBH_LL_GetURBState(phost, HID_Handle->InPipe) == USBH_URB_DONE)
 455:Middlewares/ST/STM32_USB_Host_Library/Class/HID/Src/usbh_hid.c ****       {
 456:Middlewares/ST/STM32_USB_Host_Library/Class/HID/Src/usbh_hid.c ****         XferSize = USBH_LL_GetLastXferSize(phost, HID_Handle->InPipe);
 457:Middlewares/ST/STM32_USB_Host_Library/Class/HID/Src/usbh_hid.c **** 
 458:Middlewares/ST/STM32_USB_Host_Library/Class/HID/Src/usbh_hid.c ****         if ((HID_Handle->DataReady == 0U) && (XferSize != 0U))
 459:Middlewares/ST/STM32_USB_Host_Library/Class/HID/Src/usbh_hid.c ****         {
 460:Middlewares/ST/STM32_USB_Host_Library/Class/HID/Src/usbh_hid.c ****           USBH_HID_FifoWrite(&HID_Handle->fifo, HID_Handle->pData, HID_Handle->length);
 461:Middlewares/ST/STM32_USB_Host_Library/Class/HID/Src/usbh_hid.c ****           HID_Handle->DataReady = 1U;
 462:Middlewares/ST/STM32_USB_Host_Library/Class/HID/Src/usbh_hid.c ****           USBH_HID_EventCallback(phost);
 463:Middlewares/ST/STM32_USB_Host_Library/Class/HID/Src/usbh_hid.c **** 
 464:Middlewares/ST/STM32_USB_Host_Library/Class/HID/Src/usbh_hid.c **** #if (USBH_USE_OS == 1U)
 465:Middlewares/ST/STM32_USB_Host_Library/Class/HID/Src/usbh_hid.c ****           phost->os_msg = (uint32_t)USBH_URB_EVENT;
 466:Middlewares/ST/STM32_USB_Host_Library/Class/HID/Src/usbh_hid.c **** #if (osCMSIS < 0x20000U)
 467:Middlewares/ST/STM32_USB_Host_Library/Class/HID/Src/usbh_hid.c ****           (void)osMessagePut(phost->os_event, phost->os_msg, 0U);
 468:Middlewares/ST/STM32_USB_Host_Library/Class/HID/Src/usbh_hid.c **** #else
 469:Middlewares/ST/STM32_USB_Host_Library/Class/HID/Src/usbh_hid.c ****           (void)osMessageQueuePut(phost->os_event, &phost->os_msg, 0U, NULL);
 470:Middlewares/ST/STM32_USB_Host_Library/Class/HID/Src/usbh_hid.c **** #endif
 471:Middlewares/ST/STM32_USB_Host_Library/Class/HID/Src/usbh_hid.c **** #endif
 472:Middlewares/ST/STM32_USB_Host_Library/Class/HID/Src/usbh_hid.c ****         }
 473:Middlewares/ST/STM32_USB_Host_Library/Class/HID/Src/usbh_hid.c ****       }
 474:Middlewares/ST/STM32_USB_Host_Library/Class/HID/Src/usbh_hid.c ****       else
 475:Middlewares/ST/STM32_USB_Host_Library/Class/HID/Src/usbh_hid.c ****       {
 476:Middlewares/ST/STM32_USB_Host_Library/Class/HID/Src/usbh_hid.c ****         /* IN Endpoint Stalled */
 477:Middlewares/ST/STM32_USB_Host_Library/Class/HID/Src/usbh_hid.c ****         if (USBH_LL_GetURBState(phost, HID_Handle->InPipe) == USBH_URB_STALL)
 478:Middlewares/ST/STM32_USB_Host_Library/Class/HID/Src/usbh_hid.c ****         {
 479:Middlewares/ST/STM32_USB_Host_Library/Class/HID/Src/usbh_hid.c ****           /* Issue Clear Feature on interrupt IN endpoint */
 480:Middlewares/ST/STM32_USB_Host_Library/Class/HID/Src/usbh_hid.c ****           if (USBH_ClrFeature(phost, HID_Handle->ep_addr) == USBH_OK)
 481:Middlewares/ST/STM32_USB_Host_Library/Class/HID/Src/usbh_hid.c ****           {
 482:Middlewares/ST/STM32_USB_Host_Library/Class/HID/Src/usbh_hid.c ****             /* Change state to issue next IN token */
 483:Middlewares/ST/STM32_USB_Host_Library/Class/HID/Src/usbh_hid.c ****             HID_Handle->state = HID_GET_DATA;
 484:Middlewares/ST/STM32_USB_Host_Library/Class/HID/Src/usbh_hid.c ****           }
 485:Middlewares/ST/STM32_USB_Host_Library/Class/HID/Src/usbh_hid.c ****         }
 486:Middlewares/ST/STM32_USB_Host_Library/Class/HID/Src/usbh_hid.c ****       }
 487:Middlewares/ST/STM32_USB_Host_Library/Class/HID/Src/usbh_hid.c ****       break;
ARM GAS  /tmp/ccKBEJwZ.s 			page 10


 488:Middlewares/ST/STM32_USB_Host_Library/Class/HID/Src/usbh_hid.c **** 
 489:Middlewares/ST/STM32_USB_Host_Library/Class/HID/Src/usbh_hid.c ****     default:
 490:Middlewares/ST/STM32_USB_Host_Library/Class/HID/Src/usbh_hid.c ****       break;
 491:Middlewares/ST/STM32_USB_Host_Library/Class/HID/Src/usbh_hid.c ****   }
 492:Middlewares/ST/STM32_USB_Host_Library/Class/HID/Src/usbh_hid.c **** 
 493:Middlewares/ST/STM32_USB_Host_Library/Class/HID/Src/usbh_hid.c ****   return status;
 494:Middlewares/ST/STM32_USB_Host_Library/Class/HID/Src/usbh_hid.c **** }
 495:Middlewares/ST/STM32_USB_Host_Library/Class/HID/Src/usbh_hid.c **** 
 496:Middlewares/ST/STM32_USB_Host_Library/Class/HID/Src/usbh_hid.c **** /**
 497:Middlewares/ST/STM32_USB_Host_Library/Class/HID/Src/usbh_hid.c ****   * @brief  USBH_HID_SOFProcess
 498:Middlewares/ST/STM32_USB_Host_Library/Class/HID/Src/usbh_hid.c ****   *         The function is for managing the SOF Process
 499:Middlewares/ST/STM32_USB_Host_Library/Class/HID/Src/usbh_hid.c ****   * @param  phost: Host handle
 500:Middlewares/ST/STM32_USB_Host_Library/Class/HID/Src/usbh_hid.c ****   * @retval USBH Status
 501:Middlewares/ST/STM32_USB_Host_Library/Class/HID/Src/usbh_hid.c ****   */
 502:Middlewares/ST/STM32_USB_Host_Library/Class/HID/Src/usbh_hid.c **** static USBH_StatusTypeDef USBH_HID_SOFProcess(USBH_HandleTypeDef *phost)
 503:Middlewares/ST/STM32_USB_Host_Library/Class/HID/Src/usbh_hid.c **** {
  28              		.loc 1 503 1 view -0
  29              		.cfi_startproc
  30              		@ args = 0, pretend = 0, frame = 0
  31              		@ frame_needed = 0, uses_anonymous_args = 0
  32              		@ link register save eliminated.
 504:Middlewares/ST/STM32_USB_Host_Library/Class/HID/Src/usbh_hid.c ****   HID_HandleTypeDef *HID_Handle = (HID_HandleTypeDef *) phost->pActiveClass->pData;
  33              		.loc 1 504 3 view .LVU1
  34              		.loc 1 504 62 is_stmt 0 view .LVU2
  35 0000 D0F87C33 		ldr	r3, [r0, #892]
  36              		.loc 1 504 22 view .LVU3
  37 0004 DB69     		ldr	r3, [r3, #28]
  38              	.LVL1:
 505:Middlewares/ST/STM32_USB_Host_Library/Class/HID/Src/usbh_hid.c **** 
 506:Middlewares/ST/STM32_USB_Host_Library/Class/HID/Src/usbh_hid.c ****   if (HID_Handle->state == HID_POLL)
  39              		.loc 1 506 3 is_stmt 1 view .LVU4
  40              		.loc 1 506 17 is_stmt 0 view .LVU5
  41 0006 9A78     		ldrb	r2, [r3, #2]	@ zero_extendqisi2
  42              		.loc 1 506 6 view .LVU6
  43 0008 062A     		cmp	r2, #6
  44 000a 01D0     		beq	.L3
  45              	.L2:
 507:Middlewares/ST/STM32_USB_Host_Library/Class/HID/Src/usbh_hid.c ****   {
 508:Middlewares/ST/STM32_USB_Host_Library/Class/HID/Src/usbh_hid.c ****     if ((phost->Timer - HID_Handle->timer) >= HID_Handle->poll)
 509:Middlewares/ST/STM32_USB_Host_Library/Class/HID/Src/usbh_hid.c ****     {
 510:Middlewares/ST/STM32_USB_Host_Library/Class/HID/Src/usbh_hid.c ****       HID_Handle->state = HID_GET_DATA;
 511:Middlewares/ST/STM32_USB_Host_Library/Class/HID/Src/usbh_hid.c **** 
 512:Middlewares/ST/STM32_USB_Host_Library/Class/HID/Src/usbh_hid.c **** #if (USBH_USE_OS == 1U)
 513:Middlewares/ST/STM32_USB_Host_Library/Class/HID/Src/usbh_hid.c ****       phost->os_msg = (uint32_t)USBH_URB_EVENT;
 514:Middlewares/ST/STM32_USB_Host_Library/Class/HID/Src/usbh_hid.c **** #if (osCMSIS < 0x20000U)
 515:Middlewares/ST/STM32_USB_Host_Library/Class/HID/Src/usbh_hid.c ****       (void)osMessagePut(phost->os_event, phost->os_msg, 0U);
 516:Middlewares/ST/STM32_USB_Host_Library/Class/HID/Src/usbh_hid.c **** #else
 517:Middlewares/ST/STM32_USB_Host_Library/Class/HID/Src/usbh_hid.c ****       (void)osMessageQueuePut(phost->os_event, &phost->os_msg, 0U, NULL);
 518:Middlewares/ST/STM32_USB_Host_Library/Class/HID/Src/usbh_hid.c **** #endif
 519:Middlewares/ST/STM32_USB_Host_Library/Class/HID/Src/usbh_hid.c **** #endif
 520:Middlewares/ST/STM32_USB_Host_Library/Class/HID/Src/usbh_hid.c ****     }
 521:Middlewares/ST/STM32_USB_Host_Library/Class/HID/Src/usbh_hid.c ****   }
 522:Middlewares/ST/STM32_USB_Host_Library/Class/HID/Src/usbh_hid.c ****   return USBH_OK;
  46              		.loc 1 522 3 is_stmt 1 view .LVU7
 523:Middlewares/ST/STM32_USB_Host_Library/Class/HID/Src/usbh_hid.c **** }
  47              		.loc 1 523 1 is_stmt 0 view .LVU8
  48 000c 0020     		movs	r0, #0
ARM GAS  /tmp/ccKBEJwZ.s 			page 11


  49              	.LVL2:
  50              		.loc 1 523 1 view .LVU9
  51 000e 7047     		bx	lr
  52              	.LVL3:
  53              	.L3:
 508:Middlewares/ST/STM32_USB_Host_Library/Class/HID/Src/usbh_hid.c ****     {
  54              		.loc 1 508 5 is_stmt 1 view .LVU10
 508:Middlewares/ST/STM32_USB_Host_Library/Class/HID/Src/usbh_hid.c ****     {
  55              		.loc 1 508 15 is_stmt 0 view .LVU11
  56 0010 D0F8C423 		ldr	r2, [r0, #964]
 508:Middlewares/ST/STM32_USB_Host_Library/Class/HID/Src/usbh_hid.c ****     {
  57              		.loc 1 508 35 view .LVU12
  58 0014 196A     		ldr	r1, [r3, #32]
 508:Middlewares/ST/STM32_USB_Host_Library/Class/HID/Src/usbh_hid.c ****     {
  59              		.loc 1 508 23 view .LVU13
  60 0016 521A     		subs	r2, r2, r1
 508:Middlewares/ST/STM32_USB_Host_Library/Class/HID/Src/usbh_hid.c ****     {
  61              		.loc 1 508 57 view .LVU14
  62 0018 998B     		ldrh	r1, [r3, #28]
 508:Middlewares/ST/STM32_USB_Host_Library/Class/HID/Src/usbh_hid.c ****     {
  63              		.loc 1 508 8 view .LVU15
  64 001a 8A42     		cmp	r2, r1
  65 001c F6D3     		bcc	.L2
 510:Middlewares/ST/STM32_USB_Host_Library/Class/HID/Src/usbh_hid.c **** 
  66              		.loc 1 510 7 is_stmt 1 view .LVU16
 510:Middlewares/ST/STM32_USB_Host_Library/Class/HID/Src/usbh_hid.c **** 
  67              		.loc 1 510 25 is_stmt 0 view .LVU17
  68 001e 0422     		movs	r2, #4
  69 0020 9A70     		strb	r2, [r3, #2]
  70 0022 F3E7     		b	.L2
  71              		.cfi_endproc
  72              	.LFE335:
  74              		.section	.text.USBH_HID_ParseHIDDesc,"ax",%progbits
  75              		.align	1
  76              		.syntax unified
  77              		.thumb
  78              		.thumb_func
  80              	USBH_HID_ParseHIDDesc:
  81              	.LVL4:
  82              	.LFB342:
 524:Middlewares/ST/STM32_USB_Host_Library/Class/HID/Src/usbh_hid.c **** 
 525:Middlewares/ST/STM32_USB_Host_Library/Class/HID/Src/usbh_hid.c **** /**
 526:Middlewares/ST/STM32_USB_Host_Library/Class/HID/Src/usbh_hid.c **** * @brief  USBH_Get_HID_ReportDescriptor
 527:Middlewares/ST/STM32_USB_Host_Library/Class/HID/Src/usbh_hid.c ****   *         Issue report Descriptor command to the device. Once the response
 528:Middlewares/ST/STM32_USB_Host_Library/Class/HID/Src/usbh_hid.c ****   *         received, parse the report descriptor and update the status.
 529:Middlewares/ST/STM32_USB_Host_Library/Class/HID/Src/usbh_hid.c ****   * @param  phost: Host handle
 530:Middlewares/ST/STM32_USB_Host_Library/Class/HID/Src/usbh_hid.c ****   * @param  Length : HID Report Descriptor Length
 531:Middlewares/ST/STM32_USB_Host_Library/Class/HID/Src/usbh_hid.c ****   * @retval USBH Status
 532:Middlewares/ST/STM32_USB_Host_Library/Class/HID/Src/usbh_hid.c ****   */
 533:Middlewares/ST/STM32_USB_Host_Library/Class/HID/Src/usbh_hid.c **** USBH_StatusTypeDef USBH_HID_GetHIDReportDescriptor(USBH_HandleTypeDef *phost,
 534:Middlewares/ST/STM32_USB_Host_Library/Class/HID/Src/usbh_hid.c ****                                                    uint16_t length)
 535:Middlewares/ST/STM32_USB_Host_Library/Class/HID/Src/usbh_hid.c **** {
 536:Middlewares/ST/STM32_USB_Host_Library/Class/HID/Src/usbh_hid.c **** 
 537:Middlewares/ST/STM32_USB_Host_Library/Class/HID/Src/usbh_hid.c ****   USBH_StatusTypeDef status;
 538:Middlewares/ST/STM32_USB_Host_Library/Class/HID/Src/usbh_hid.c **** 
 539:Middlewares/ST/STM32_USB_Host_Library/Class/HID/Src/usbh_hid.c ****   status = USBH_GetDescriptor(phost,
 540:Middlewares/ST/STM32_USB_Host_Library/Class/HID/Src/usbh_hid.c ****                               USB_REQ_RECIPIENT_INTERFACE | USB_REQ_TYPE_STANDARD,
ARM GAS  /tmp/ccKBEJwZ.s 			page 12


 541:Middlewares/ST/STM32_USB_Host_Library/Class/HID/Src/usbh_hid.c ****                               USB_DESC_HID_REPORT,
 542:Middlewares/ST/STM32_USB_Host_Library/Class/HID/Src/usbh_hid.c ****                               phost->device.Data,
 543:Middlewares/ST/STM32_USB_Host_Library/Class/HID/Src/usbh_hid.c ****                               length);
 544:Middlewares/ST/STM32_USB_Host_Library/Class/HID/Src/usbh_hid.c **** 
 545:Middlewares/ST/STM32_USB_Host_Library/Class/HID/Src/usbh_hid.c ****   /* HID report descriptor is available in phost->device.Data.
 546:Middlewares/ST/STM32_USB_Host_Library/Class/HID/Src/usbh_hid.c ****   In case of USB Boot Mode devices for In report handling ,
 547:Middlewares/ST/STM32_USB_Host_Library/Class/HID/Src/usbh_hid.c ****   HID report descriptor parsing is not required.
 548:Middlewares/ST/STM32_USB_Host_Library/Class/HID/Src/usbh_hid.c ****   In case, for supporting Non-Boot Protocol devices and output reports,
 549:Middlewares/ST/STM32_USB_Host_Library/Class/HID/Src/usbh_hid.c ****   user may parse the report descriptor*/
 550:Middlewares/ST/STM32_USB_Host_Library/Class/HID/Src/usbh_hid.c **** 
 551:Middlewares/ST/STM32_USB_Host_Library/Class/HID/Src/usbh_hid.c **** 
 552:Middlewares/ST/STM32_USB_Host_Library/Class/HID/Src/usbh_hid.c ****   return status;
 553:Middlewares/ST/STM32_USB_Host_Library/Class/HID/Src/usbh_hid.c **** }
 554:Middlewares/ST/STM32_USB_Host_Library/Class/HID/Src/usbh_hid.c **** 
 555:Middlewares/ST/STM32_USB_Host_Library/Class/HID/Src/usbh_hid.c **** /**
 556:Middlewares/ST/STM32_USB_Host_Library/Class/HID/Src/usbh_hid.c ****   * @brief  USBH_Get_HID_Descriptor
 557:Middlewares/ST/STM32_USB_Host_Library/Class/HID/Src/usbh_hid.c ****   *         Issue HID Descriptor command to the device. Once the response
 558:Middlewares/ST/STM32_USB_Host_Library/Class/HID/Src/usbh_hid.c ****   *         received, parse the report descriptor and update the status.
 559:Middlewares/ST/STM32_USB_Host_Library/Class/HID/Src/usbh_hid.c ****   * @param  phost: Host handle
 560:Middlewares/ST/STM32_USB_Host_Library/Class/HID/Src/usbh_hid.c ****   * @param  Length : HID Descriptor Length
 561:Middlewares/ST/STM32_USB_Host_Library/Class/HID/Src/usbh_hid.c ****   * @retval USBH Status
 562:Middlewares/ST/STM32_USB_Host_Library/Class/HID/Src/usbh_hid.c ****   */
 563:Middlewares/ST/STM32_USB_Host_Library/Class/HID/Src/usbh_hid.c **** USBH_StatusTypeDef USBH_HID_GetHIDDescriptor(USBH_HandleTypeDef *phost,
 564:Middlewares/ST/STM32_USB_Host_Library/Class/HID/Src/usbh_hid.c ****                                              uint16_t length)
 565:Middlewares/ST/STM32_USB_Host_Library/Class/HID/Src/usbh_hid.c **** {
 566:Middlewares/ST/STM32_USB_Host_Library/Class/HID/Src/usbh_hid.c ****   USBH_StatusTypeDef status;
 567:Middlewares/ST/STM32_USB_Host_Library/Class/HID/Src/usbh_hid.c **** 
 568:Middlewares/ST/STM32_USB_Host_Library/Class/HID/Src/usbh_hid.c ****   status = USBH_GetDescriptor(phost,
 569:Middlewares/ST/STM32_USB_Host_Library/Class/HID/Src/usbh_hid.c ****                               USB_REQ_RECIPIENT_INTERFACE | USB_REQ_TYPE_STANDARD,
 570:Middlewares/ST/STM32_USB_Host_Library/Class/HID/Src/usbh_hid.c ****                               USB_DESC_HID,
 571:Middlewares/ST/STM32_USB_Host_Library/Class/HID/Src/usbh_hid.c ****                               phost->device.Data,
 572:Middlewares/ST/STM32_USB_Host_Library/Class/HID/Src/usbh_hid.c ****                               length);
 573:Middlewares/ST/STM32_USB_Host_Library/Class/HID/Src/usbh_hid.c **** 
 574:Middlewares/ST/STM32_USB_Host_Library/Class/HID/Src/usbh_hid.c ****   return status;
 575:Middlewares/ST/STM32_USB_Host_Library/Class/HID/Src/usbh_hid.c **** }
 576:Middlewares/ST/STM32_USB_Host_Library/Class/HID/Src/usbh_hid.c **** 
 577:Middlewares/ST/STM32_USB_Host_Library/Class/HID/Src/usbh_hid.c **** /**
 578:Middlewares/ST/STM32_USB_Host_Library/Class/HID/Src/usbh_hid.c ****   * @brief  USBH_Set_Idle
 579:Middlewares/ST/STM32_USB_Host_Library/Class/HID/Src/usbh_hid.c ****   *         Set Idle State.
 580:Middlewares/ST/STM32_USB_Host_Library/Class/HID/Src/usbh_hid.c ****   * @param  phost: Host handle
 581:Middlewares/ST/STM32_USB_Host_Library/Class/HID/Src/usbh_hid.c ****   * @param  duration: Duration for HID Idle request
 582:Middlewares/ST/STM32_USB_Host_Library/Class/HID/Src/usbh_hid.c ****   * @param  reportId : Targeted report ID for Set Idle request
 583:Middlewares/ST/STM32_USB_Host_Library/Class/HID/Src/usbh_hid.c ****   * @retval USBH Status
 584:Middlewares/ST/STM32_USB_Host_Library/Class/HID/Src/usbh_hid.c ****   */
 585:Middlewares/ST/STM32_USB_Host_Library/Class/HID/Src/usbh_hid.c **** USBH_StatusTypeDef USBH_HID_SetIdle(USBH_HandleTypeDef *phost,
 586:Middlewares/ST/STM32_USB_Host_Library/Class/HID/Src/usbh_hid.c ****                                     uint8_t duration,
 587:Middlewares/ST/STM32_USB_Host_Library/Class/HID/Src/usbh_hid.c ****                                     uint8_t reportId)
 588:Middlewares/ST/STM32_USB_Host_Library/Class/HID/Src/usbh_hid.c **** {
 589:Middlewares/ST/STM32_USB_Host_Library/Class/HID/Src/usbh_hid.c **** 
 590:Middlewares/ST/STM32_USB_Host_Library/Class/HID/Src/usbh_hid.c ****   phost->Control.setup.b.bmRequestType = USB_H2D | USB_REQ_RECIPIENT_INTERFACE | \
 591:Middlewares/ST/STM32_USB_Host_Library/Class/HID/Src/usbh_hid.c ****                                          USB_REQ_TYPE_CLASS;
 592:Middlewares/ST/STM32_USB_Host_Library/Class/HID/Src/usbh_hid.c **** 
 593:Middlewares/ST/STM32_USB_Host_Library/Class/HID/Src/usbh_hid.c **** 
 594:Middlewares/ST/STM32_USB_Host_Library/Class/HID/Src/usbh_hid.c ****   phost->Control.setup.b.bRequest = USB_HID_SET_IDLE;
 595:Middlewares/ST/STM32_USB_Host_Library/Class/HID/Src/usbh_hid.c ****   phost->Control.setup.b.wValue.w = (uint16_t)(((uint32_t)duration << 8U) | (uint32_t)reportId);
 596:Middlewares/ST/STM32_USB_Host_Library/Class/HID/Src/usbh_hid.c **** 
 597:Middlewares/ST/STM32_USB_Host_Library/Class/HID/Src/usbh_hid.c ****   phost->Control.setup.b.wIndex.w = 0U;
ARM GAS  /tmp/ccKBEJwZ.s 			page 13


 598:Middlewares/ST/STM32_USB_Host_Library/Class/HID/Src/usbh_hid.c ****   phost->Control.setup.b.wLength.w = 0U;
 599:Middlewares/ST/STM32_USB_Host_Library/Class/HID/Src/usbh_hid.c **** 
 600:Middlewares/ST/STM32_USB_Host_Library/Class/HID/Src/usbh_hid.c ****   return USBH_CtlReq(phost, 0U, 0U);
 601:Middlewares/ST/STM32_USB_Host_Library/Class/HID/Src/usbh_hid.c **** }
 602:Middlewares/ST/STM32_USB_Host_Library/Class/HID/Src/usbh_hid.c **** 
 603:Middlewares/ST/STM32_USB_Host_Library/Class/HID/Src/usbh_hid.c **** 
 604:Middlewares/ST/STM32_USB_Host_Library/Class/HID/Src/usbh_hid.c **** /**
 605:Middlewares/ST/STM32_USB_Host_Library/Class/HID/Src/usbh_hid.c ****   * @brief  USBH_HID_Set_Report
 606:Middlewares/ST/STM32_USB_Host_Library/Class/HID/Src/usbh_hid.c ****   *         Issues Set Report
 607:Middlewares/ST/STM32_USB_Host_Library/Class/HID/Src/usbh_hid.c ****   * @param  phost: Host handle
 608:Middlewares/ST/STM32_USB_Host_Library/Class/HID/Src/usbh_hid.c ****   * @param  reportType  : Report type to be sent
 609:Middlewares/ST/STM32_USB_Host_Library/Class/HID/Src/usbh_hid.c ****   * @param  reportId    : Targeted report ID for Set Report request
 610:Middlewares/ST/STM32_USB_Host_Library/Class/HID/Src/usbh_hid.c ****   * @param  reportBuff  : Report Buffer
 611:Middlewares/ST/STM32_USB_Host_Library/Class/HID/Src/usbh_hid.c ****   * @param  reportLen   : Length of data report to be send
 612:Middlewares/ST/STM32_USB_Host_Library/Class/HID/Src/usbh_hid.c ****   * @retval USBH Status
 613:Middlewares/ST/STM32_USB_Host_Library/Class/HID/Src/usbh_hid.c ****   */
 614:Middlewares/ST/STM32_USB_Host_Library/Class/HID/Src/usbh_hid.c **** USBH_StatusTypeDef USBH_HID_SetReport(USBH_HandleTypeDef *phost,
 615:Middlewares/ST/STM32_USB_Host_Library/Class/HID/Src/usbh_hid.c ****                                       uint8_t reportType,
 616:Middlewares/ST/STM32_USB_Host_Library/Class/HID/Src/usbh_hid.c ****                                       uint8_t reportId,
 617:Middlewares/ST/STM32_USB_Host_Library/Class/HID/Src/usbh_hid.c ****                                       uint8_t *reportBuff,
 618:Middlewares/ST/STM32_USB_Host_Library/Class/HID/Src/usbh_hid.c ****                                       uint8_t reportLen)
 619:Middlewares/ST/STM32_USB_Host_Library/Class/HID/Src/usbh_hid.c **** {
 620:Middlewares/ST/STM32_USB_Host_Library/Class/HID/Src/usbh_hid.c **** 
 621:Middlewares/ST/STM32_USB_Host_Library/Class/HID/Src/usbh_hid.c ****   phost->Control.setup.b.bmRequestType = USB_H2D | USB_REQ_RECIPIENT_INTERFACE | \
 622:Middlewares/ST/STM32_USB_Host_Library/Class/HID/Src/usbh_hid.c ****                                          USB_REQ_TYPE_CLASS;
 623:Middlewares/ST/STM32_USB_Host_Library/Class/HID/Src/usbh_hid.c **** 
 624:Middlewares/ST/STM32_USB_Host_Library/Class/HID/Src/usbh_hid.c **** 
 625:Middlewares/ST/STM32_USB_Host_Library/Class/HID/Src/usbh_hid.c ****   phost->Control.setup.b.bRequest = USB_HID_SET_REPORT;
 626:Middlewares/ST/STM32_USB_Host_Library/Class/HID/Src/usbh_hid.c ****   phost->Control.setup.b.wValue.w = (uint16_t)(((uint32_t)reportType << 8U) | (uint32_t)reportId);
 627:Middlewares/ST/STM32_USB_Host_Library/Class/HID/Src/usbh_hid.c **** 
 628:Middlewares/ST/STM32_USB_Host_Library/Class/HID/Src/usbh_hid.c ****   phost->Control.setup.b.wIndex.w = 0U;
 629:Middlewares/ST/STM32_USB_Host_Library/Class/HID/Src/usbh_hid.c ****   phost->Control.setup.b.wLength.w = reportLen;
 630:Middlewares/ST/STM32_USB_Host_Library/Class/HID/Src/usbh_hid.c **** 
 631:Middlewares/ST/STM32_USB_Host_Library/Class/HID/Src/usbh_hid.c ****   return USBH_CtlReq(phost, reportBuff, (uint16_t)reportLen);
 632:Middlewares/ST/STM32_USB_Host_Library/Class/HID/Src/usbh_hid.c **** }
 633:Middlewares/ST/STM32_USB_Host_Library/Class/HID/Src/usbh_hid.c **** 
 634:Middlewares/ST/STM32_USB_Host_Library/Class/HID/Src/usbh_hid.c **** 
 635:Middlewares/ST/STM32_USB_Host_Library/Class/HID/Src/usbh_hid.c **** /**
 636:Middlewares/ST/STM32_USB_Host_Library/Class/HID/Src/usbh_hid.c ****   * @brief  USBH_HID_GetReport
 637:Middlewares/ST/STM32_USB_Host_Library/Class/HID/Src/usbh_hid.c ****   *         retreive Set Report
 638:Middlewares/ST/STM32_USB_Host_Library/Class/HID/Src/usbh_hid.c ****   * @param  phost: Host handle
 639:Middlewares/ST/STM32_USB_Host_Library/Class/HID/Src/usbh_hid.c ****   * @param  reportType  : Report type to be sent
 640:Middlewares/ST/STM32_USB_Host_Library/Class/HID/Src/usbh_hid.c ****   * @param  reportId    : Targeted report ID for Set Report request
 641:Middlewares/ST/STM32_USB_Host_Library/Class/HID/Src/usbh_hid.c ****   * @param  reportBuff  : Report Buffer
 642:Middlewares/ST/STM32_USB_Host_Library/Class/HID/Src/usbh_hid.c ****   * @param  reportLen   : Length of data report to be send
 643:Middlewares/ST/STM32_USB_Host_Library/Class/HID/Src/usbh_hid.c ****   * @retval USBH Status
 644:Middlewares/ST/STM32_USB_Host_Library/Class/HID/Src/usbh_hid.c ****   */
 645:Middlewares/ST/STM32_USB_Host_Library/Class/HID/Src/usbh_hid.c **** USBH_StatusTypeDef USBH_HID_GetReport(USBH_HandleTypeDef *phost,
 646:Middlewares/ST/STM32_USB_Host_Library/Class/HID/Src/usbh_hid.c ****                                       uint8_t reportType,
 647:Middlewares/ST/STM32_USB_Host_Library/Class/HID/Src/usbh_hid.c ****                                       uint8_t reportId,
 648:Middlewares/ST/STM32_USB_Host_Library/Class/HID/Src/usbh_hid.c ****                                       uint8_t *reportBuff,
 649:Middlewares/ST/STM32_USB_Host_Library/Class/HID/Src/usbh_hid.c ****                                       uint8_t reportLen)
 650:Middlewares/ST/STM32_USB_Host_Library/Class/HID/Src/usbh_hid.c **** {
 651:Middlewares/ST/STM32_USB_Host_Library/Class/HID/Src/usbh_hid.c **** 
 652:Middlewares/ST/STM32_USB_Host_Library/Class/HID/Src/usbh_hid.c ****   phost->Control.setup.b.bmRequestType = USB_D2H | USB_REQ_RECIPIENT_INTERFACE | \
 653:Middlewares/ST/STM32_USB_Host_Library/Class/HID/Src/usbh_hid.c ****                                          USB_REQ_TYPE_CLASS;
 654:Middlewares/ST/STM32_USB_Host_Library/Class/HID/Src/usbh_hid.c **** 
ARM GAS  /tmp/ccKBEJwZ.s 			page 14


 655:Middlewares/ST/STM32_USB_Host_Library/Class/HID/Src/usbh_hid.c **** 
 656:Middlewares/ST/STM32_USB_Host_Library/Class/HID/Src/usbh_hid.c ****   phost->Control.setup.b.bRequest = USB_HID_GET_REPORT;
 657:Middlewares/ST/STM32_USB_Host_Library/Class/HID/Src/usbh_hid.c ****   phost->Control.setup.b.wValue.w = (uint16_t)(((uint32_t)reportType << 8U) | (uint32_t)reportId);
 658:Middlewares/ST/STM32_USB_Host_Library/Class/HID/Src/usbh_hid.c **** 
 659:Middlewares/ST/STM32_USB_Host_Library/Class/HID/Src/usbh_hid.c ****   phost->Control.setup.b.wIndex.w = 0U;
 660:Middlewares/ST/STM32_USB_Host_Library/Class/HID/Src/usbh_hid.c ****   phost->Control.setup.b.wLength.w = reportLen;
 661:Middlewares/ST/STM32_USB_Host_Library/Class/HID/Src/usbh_hid.c **** 
 662:Middlewares/ST/STM32_USB_Host_Library/Class/HID/Src/usbh_hid.c ****   return USBH_CtlReq(phost, reportBuff, (uint16_t)reportLen);
 663:Middlewares/ST/STM32_USB_Host_Library/Class/HID/Src/usbh_hid.c **** }
 664:Middlewares/ST/STM32_USB_Host_Library/Class/HID/Src/usbh_hid.c **** 
 665:Middlewares/ST/STM32_USB_Host_Library/Class/HID/Src/usbh_hid.c **** /**
 666:Middlewares/ST/STM32_USB_Host_Library/Class/HID/Src/usbh_hid.c ****   * @brief  USBH_Set_Protocol
 667:Middlewares/ST/STM32_USB_Host_Library/Class/HID/Src/usbh_hid.c ****   *         Set protocol State.
 668:Middlewares/ST/STM32_USB_Host_Library/Class/HID/Src/usbh_hid.c ****   * @param  phost: Host handle
 669:Middlewares/ST/STM32_USB_Host_Library/Class/HID/Src/usbh_hid.c ****   * @param  protocol : Set Protocol for HID : boot/report protocol
 670:Middlewares/ST/STM32_USB_Host_Library/Class/HID/Src/usbh_hid.c ****   * @retval USBH Status
 671:Middlewares/ST/STM32_USB_Host_Library/Class/HID/Src/usbh_hid.c ****   */
 672:Middlewares/ST/STM32_USB_Host_Library/Class/HID/Src/usbh_hid.c **** USBH_StatusTypeDef USBH_HID_SetProtocol(USBH_HandleTypeDef *phost,
 673:Middlewares/ST/STM32_USB_Host_Library/Class/HID/Src/usbh_hid.c ****                                         uint8_t protocol)
 674:Middlewares/ST/STM32_USB_Host_Library/Class/HID/Src/usbh_hid.c **** {
 675:Middlewares/ST/STM32_USB_Host_Library/Class/HID/Src/usbh_hid.c ****   phost->Control.setup.b.bmRequestType = USB_H2D | USB_REQ_RECIPIENT_INTERFACE
 676:Middlewares/ST/STM32_USB_Host_Library/Class/HID/Src/usbh_hid.c ****                                          | USB_REQ_TYPE_CLASS;
 677:Middlewares/ST/STM32_USB_Host_Library/Class/HID/Src/usbh_hid.c **** 
 678:Middlewares/ST/STM32_USB_Host_Library/Class/HID/Src/usbh_hid.c ****   phost->Control.setup.b.bRequest = USB_HID_SET_PROTOCOL;
 679:Middlewares/ST/STM32_USB_Host_Library/Class/HID/Src/usbh_hid.c ****   if (protocol)
 680:Middlewares/ST/STM32_USB_Host_Library/Class/HID/Src/usbh_hid.c ****   {
 681:Middlewares/ST/STM32_USB_Host_Library/Class/HID/Src/usbh_hid.c ****     phost->Control.setup.b.wValue.w = 0U;
 682:Middlewares/ST/STM32_USB_Host_Library/Class/HID/Src/usbh_hid.c ****   }
 683:Middlewares/ST/STM32_USB_Host_Library/Class/HID/Src/usbh_hid.c ****   else
 684:Middlewares/ST/STM32_USB_Host_Library/Class/HID/Src/usbh_hid.c ****   {
 685:Middlewares/ST/STM32_USB_Host_Library/Class/HID/Src/usbh_hid.c ****     phost->Control.setup.b.wValue.w = 1U;
 686:Middlewares/ST/STM32_USB_Host_Library/Class/HID/Src/usbh_hid.c ****   }
 687:Middlewares/ST/STM32_USB_Host_Library/Class/HID/Src/usbh_hid.c **** 
 688:Middlewares/ST/STM32_USB_Host_Library/Class/HID/Src/usbh_hid.c ****   phost->Control.setup.b.wIndex.w = 0U;
 689:Middlewares/ST/STM32_USB_Host_Library/Class/HID/Src/usbh_hid.c ****   phost->Control.setup.b.wLength.w = 0U;
 690:Middlewares/ST/STM32_USB_Host_Library/Class/HID/Src/usbh_hid.c **** 
 691:Middlewares/ST/STM32_USB_Host_Library/Class/HID/Src/usbh_hid.c ****   return USBH_CtlReq(phost, 0U, 0U);
 692:Middlewares/ST/STM32_USB_Host_Library/Class/HID/Src/usbh_hid.c **** 
 693:Middlewares/ST/STM32_USB_Host_Library/Class/HID/Src/usbh_hid.c **** }
 694:Middlewares/ST/STM32_USB_Host_Library/Class/HID/Src/usbh_hid.c **** 
 695:Middlewares/ST/STM32_USB_Host_Library/Class/HID/Src/usbh_hid.c **** /**
 696:Middlewares/ST/STM32_USB_Host_Library/Class/HID/Src/usbh_hid.c ****   * @brief  USBH_ParseHIDDesc
 697:Middlewares/ST/STM32_USB_Host_Library/Class/HID/Src/usbh_hid.c ****   *         This function Parse the HID descriptor
 698:Middlewares/ST/STM32_USB_Host_Library/Class/HID/Src/usbh_hid.c ****   * @param  desc: HID Descriptor
 699:Middlewares/ST/STM32_USB_Host_Library/Class/HID/Src/usbh_hid.c ****   * @param  buf: Buffer where the source descriptor is available
 700:Middlewares/ST/STM32_USB_Host_Library/Class/HID/Src/usbh_hid.c ****   * @retval None
 701:Middlewares/ST/STM32_USB_Host_Library/Class/HID/Src/usbh_hid.c ****   */
 702:Middlewares/ST/STM32_USB_Host_Library/Class/HID/Src/usbh_hid.c **** static void  USBH_HID_ParseHIDDesc(HID_DescTypeDef *desc, uint8_t *buf)
 703:Middlewares/ST/STM32_USB_Host_Library/Class/HID/Src/usbh_hid.c **** {
  83              		.loc 1 703 1 is_stmt 1 view -0
  84              		.cfi_startproc
  85              		@ args = 0, pretend = 0, frame = 8
  86              		@ frame_needed = 0, uses_anonymous_args = 0
  87              		.loc 1 703 1 is_stmt 0 view .LVU19
  88 0000 30B5     		push	{r4, r5, lr}
  89              	.LCFI0:
  90              		.cfi_def_cfa_offset 12
ARM GAS  /tmp/ccKBEJwZ.s 			page 15


  91              		.cfi_offset 4, -12
  92              		.cfi_offset 5, -8
  93              		.cfi_offset 14, -4
  94 0002 83B0     		sub	sp, sp, #12
  95              	.LCFI1:
  96              		.cfi_def_cfa_offset 24
 704:Middlewares/ST/STM32_USB_Host_Library/Class/HID/Src/usbh_hid.c ****   USBH_DescHeader_t *pdesc = (USBH_DescHeader_t *)buf;
  97              		.loc 1 704 3 is_stmt 1 view .LVU20
  98              	.LVL5:
 705:Middlewares/ST/STM32_USB_Host_Library/Class/HID/Src/usbh_hid.c ****   uint16_t CfgDescLen;
  99              		.loc 1 705 3 view .LVU21
 706:Middlewares/ST/STM32_USB_Host_Library/Class/HID/Src/usbh_hid.c ****   uint16_t ptr;
 100              		.loc 1 706 3 view .LVU22
 707:Middlewares/ST/STM32_USB_Host_Library/Class/HID/Src/usbh_hid.c **** 
 708:Middlewares/ST/STM32_USB_Host_Library/Class/HID/Src/usbh_hid.c ****   CfgDescLen = LE16(buf + 2U);
 101              		.loc 1 708 3 view .LVU23
 102              		.loc 1 708 16 is_stmt 0 view .LVU24
 103 0004 8C78     		ldrb	r4, [r1, #2]	@ zero_extendqisi2
 104 0006 CB78     		ldrb	r3, [r1, #3]	@ zero_extendqisi2
 105              		.loc 1 708 14 view .LVU25
 106 0008 44EA0324 		orr	r4, r4, r3, lsl #8
 107              	.LVL6:
 709:Middlewares/ST/STM32_USB_Host_Library/Class/HID/Src/usbh_hid.c **** 
 710:Middlewares/ST/STM32_USB_Host_Library/Class/HID/Src/usbh_hid.c ****   if (CfgDescLen > USB_CONFIGURATION_DESC_SIZE)
 108              		.loc 1 710 3 is_stmt 1 view .LVU26
 109              		.loc 1 710 6 is_stmt 0 view .LVU27
 110 000c 092C     		cmp	r4, #9
 111 000e 23D9     		bls	.L4
 112 0010 0546     		mov	r5, r0
 113 0012 0846     		mov	r0, r1
 114              	.LVL7:
 711:Middlewares/ST/STM32_USB_Host_Library/Class/HID/Src/usbh_hid.c ****   {
 712:Middlewares/ST/STM32_USB_Host_Library/Class/HID/Src/usbh_hid.c ****     ptr = USB_LEN_CFG_DESC;
 115              		.loc 1 712 5 is_stmt 1 view .LVU28
 116              		.loc 1 712 9 is_stmt 0 view .LVU29
 117 0014 0923     		movs	r3, #9
 118 0016 ADF80630 		strh	r3, [sp, #6]	@ movhi
 713:Middlewares/ST/STM32_USB_Host_Library/Class/HID/Src/usbh_hid.c **** 
 714:Middlewares/ST/STM32_USB_Host_Library/Class/HID/Src/usbh_hid.c ****     while (ptr < CfgDescLen)
 119              		.loc 1 714 5 is_stmt 1 view .LVU30
 120              	.LVL8:
 121              	.L6:
 122              		.loc 1 714 16 view .LVU31
 123 001a BDF80630 		ldrh	r3, [sp, #6]
 124 001e A342     		cmp	r3, r4
 125 0020 1AD2     		bcs	.L4
 715:Middlewares/ST/STM32_USB_Host_Library/Class/HID/Src/usbh_hid.c ****     {
 716:Middlewares/ST/STM32_USB_Host_Library/Class/HID/Src/usbh_hid.c ****       pdesc = USBH_GetNextDesc((uint8_t *)pdesc, &ptr);
 126              		.loc 1 716 7 view .LVU32
 127              		.loc 1 716 15 is_stmt 0 view .LVU33
 128 0022 0DF10601 		add	r1, sp, #6
 129 0026 FFF7FEFF 		bl	USBH_GetNextDesc
 130              	.LVL9:
 717:Middlewares/ST/STM32_USB_Host_Library/Class/HID/Src/usbh_hid.c **** 
 718:Middlewares/ST/STM32_USB_Host_Library/Class/HID/Src/usbh_hid.c ****       if (pdesc->bDescriptorType == USB_DESC_TYPE_HID)
 131              		.loc 1 718 7 is_stmt 1 view .LVU34
 132              		.loc 1 718 16 is_stmt 0 view .LVU35
ARM GAS  /tmp/ccKBEJwZ.s 			page 16


 133 002a 4378     		ldrb	r3, [r0, #1]	@ zero_extendqisi2
 134              		.loc 1 718 10 view .LVU36
 135 002c 212B     		cmp	r3, #33
 136 002e F4D1     		bne	.L6
 719:Middlewares/ST/STM32_USB_Host_Library/Class/HID/Src/usbh_hid.c ****       {
 720:Middlewares/ST/STM32_USB_Host_Library/Class/HID/Src/usbh_hid.c ****         desc->bLength = *(uint8_t *)((uint8_t *)pdesc + 0U);
 137              		.loc 1 720 9 is_stmt 1 view .LVU37
 138              		.loc 1 720 25 is_stmt 0 view .LVU38
 139 0030 0378     		ldrb	r3, [r0]	@ zero_extendqisi2
 140              		.loc 1 720 23 view .LVU39
 141 0032 2B70     		strb	r3, [r5]
 721:Middlewares/ST/STM32_USB_Host_Library/Class/HID/Src/usbh_hid.c ****         desc->bDescriptorType = *(uint8_t *)((uint8_t *)pdesc + 1U);
 142              		.loc 1 721 9 is_stmt 1 view .LVU40
 143              		.loc 1 721 31 is_stmt 0 view .LVU41
 144 0034 4378     		ldrb	r3, [r0, #1]	@ zero_extendqisi2
 145 0036 6B70     		strb	r3, [r5, #1]
 722:Middlewares/ST/STM32_USB_Host_Library/Class/HID/Src/usbh_hid.c ****         desc->bcdHID = LE16((uint8_t *)pdesc + 2U);
 146              		.loc 1 722 9 is_stmt 1 view .LVU42
 147              		.loc 1 722 24 is_stmt 0 view .LVU43
 148 0038 8378     		ldrb	r3, [r0, #2]	@ zero_extendqisi2
 149 003a C278     		ldrb	r2, [r0, #3]	@ zero_extendqisi2
 150 003c 43EA0223 		orr	r3, r3, r2, lsl #8
 151              		.loc 1 722 22 view .LVU44
 152 0040 6B80     		strh	r3, [r5, #2]	@ movhi
 723:Middlewares/ST/STM32_USB_Host_Library/Class/HID/Src/usbh_hid.c ****         desc->bCountryCode = *(uint8_t *)((uint8_t *)pdesc + 4U);
 153              		.loc 1 723 9 is_stmt 1 view .LVU45
 154              		.loc 1 723 28 is_stmt 0 view .LVU46
 155 0042 0379     		ldrb	r3, [r0, #4]	@ zero_extendqisi2
 156 0044 2B71     		strb	r3, [r5, #4]
 724:Middlewares/ST/STM32_USB_Host_Library/Class/HID/Src/usbh_hid.c ****         desc->bNumDescriptors = *(uint8_t *)((uint8_t *)pdesc + 5U);
 157              		.loc 1 724 9 is_stmt 1 view .LVU47
 158              		.loc 1 724 31 is_stmt 0 view .LVU48
 159 0046 4379     		ldrb	r3, [r0, #5]	@ zero_extendqisi2
 160 0048 6B71     		strb	r3, [r5, #5]
 725:Middlewares/ST/STM32_USB_Host_Library/Class/HID/Src/usbh_hid.c ****         desc->bReportDescriptorType = *(uint8_t *)((uint8_t *)pdesc + 6U);
 161              		.loc 1 725 9 is_stmt 1 view .LVU49
 162              		.loc 1 725 37 is_stmt 0 view .LVU50
 163 004a 8379     		ldrb	r3, [r0, #6]	@ zero_extendqisi2
 164 004c AB71     		strb	r3, [r5, #6]
 726:Middlewares/ST/STM32_USB_Host_Library/Class/HID/Src/usbh_hid.c ****         desc->wItemLength = LE16((uint8_t *)pdesc + 7U);
 165              		.loc 1 726 9 is_stmt 1 view .LVU51
 166              		.loc 1 726 29 is_stmt 0 view .LVU52
 167 004e C379     		ldrb	r3, [r0, #7]	@ zero_extendqisi2
 168 0050 027A     		ldrb	r2, [r0, #8]	@ zero_extendqisi2
 169 0052 43EA0223 		orr	r3, r3, r2, lsl #8
 170              		.loc 1 726 27 view .LVU53
 171 0056 2B81     		strh	r3, [r5, #8]	@ movhi
 727:Middlewares/ST/STM32_USB_Host_Library/Class/HID/Src/usbh_hid.c ****         break;
 172              		.loc 1 727 9 is_stmt 1 view .LVU54
 173              	.LVL10:
 174              	.L4:
 728:Middlewares/ST/STM32_USB_Host_Library/Class/HID/Src/usbh_hid.c ****       }
 729:Middlewares/ST/STM32_USB_Host_Library/Class/HID/Src/usbh_hid.c ****     }
 730:Middlewares/ST/STM32_USB_Host_Library/Class/HID/Src/usbh_hid.c ****   }
 731:Middlewares/ST/STM32_USB_Host_Library/Class/HID/Src/usbh_hid.c **** }
 175              		.loc 1 731 1 is_stmt 0 view .LVU55
 176 0058 03B0     		add	sp, sp, #12
ARM GAS  /tmp/ccKBEJwZ.s 			page 17


 177              	.LCFI2:
 178              		.cfi_def_cfa_offset 12
 179              		@ sp needed
 180 005a 30BD     		pop	{r4, r5, pc}
 181              		.loc 1 731 1 view .LVU56
 182              		.cfi_endproc
 183              	.LFE342:
 185              		.section	.text.USBH_HID_InterfaceDeInit,"ax",%progbits
 186              		.align	1
 187              		.syntax unified
 188              		.thumb
 189              		.thumb_func
 191              	USBH_HID_InterfaceDeInit:
 192              	.LVL11:
 193              	.LFB332:
 246:Middlewares/ST/STM32_USB_Host_Library/Class/HID/Src/usbh_hid.c ****   HID_HandleTypeDef *HID_Handle = (HID_HandleTypeDef *) phost->pActiveClass->pData;
 194              		.loc 1 246 1 is_stmt 1 view -0
 195              		.cfi_startproc
 196              		@ args = 0, pretend = 0, frame = 0
 197              		@ frame_needed = 0, uses_anonymous_args = 0
 246:Middlewares/ST/STM32_USB_Host_Library/Class/HID/Src/usbh_hid.c ****   HID_HandleTypeDef *HID_Handle = (HID_HandleTypeDef *) phost->pActiveClass->pData;
 198              		.loc 1 246 1 is_stmt 0 view .LVU58
 199 0000 38B5     		push	{r3, r4, r5, lr}
 200              	.LCFI3:
 201              		.cfi_def_cfa_offset 16
 202              		.cfi_offset 3, -16
 203              		.cfi_offset 4, -12
 204              		.cfi_offset 5, -8
 205              		.cfi_offset 14, -4
 206 0002 0446     		mov	r4, r0
 247:Middlewares/ST/STM32_USB_Host_Library/Class/HID/Src/usbh_hid.c **** 
 207              		.loc 1 247 3 is_stmt 1 view .LVU59
 247:Middlewares/ST/STM32_USB_Host_Library/Class/HID/Src/usbh_hid.c **** 
 208              		.loc 1 247 62 is_stmt 0 view .LVU60
 209 0004 D0F87C33 		ldr	r3, [r0, #892]
 247:Middlewares/ST/STM32_USB_Host_Library/Class/HID/Src/usbh_hid.c **** 
 210              		.loc 1 247 22 view .LVU61
 211 0008 DD69     		ldr	r5, [r3, #28]
 212              	.LVL12:
 249:Middlewares/ST/STM32_USB_Host_Library/Class/HID/Src/usbh_hid.c ****   {
 213              		.loc 1 249 3 is_stmt 1 view .LVU62
 249:Middlewares/ST/STM32_USB_Host_Library/Class/HID/Src/usbh_hid.c ****   {
 214              		.loc 1 249 17 is_stmt 0 view .LVU63
 215 000a 6978     		ldrb	r1, [r5, #1]	@ zero_extendqisi2
 249:Middlewares/ST/STM32_USB_Host_Library/Class/HID/Src/usbh_hid.c ****   {
 216              		.loc 1 249 6 view .LVU64
 217 000c 69B9     		cbnz	r1, .L14
 218              	.LVL13:
 219              	.L10:
 256:Middlewares/ST/STM32_USB_Host_Library/Class/HID/Src/usbh_hid.c ****   {
 220              		.loc 1 256 3 is_stmt 1 view .LVU65
 256:Middlewares/ST/STM32_USB_Host_Library/Class/HID/Src/usbh_hid.c ****   {
 221              		.loc 1 256 17 is_stmt 0 view .LVU66
 222 000e 2978     		ldrb	r1, [r5]	@ zero_extendqisi2
 256:Middlewares/ST/STM32_USB_Host_Library/Class/HID/Src/usbh_hid.c ****   {
 223              		.loc 1 256 6 view .LVU67
 224 0010 A1B9     		cbnz	r1, .L15
ARM GAS  /tmp/ccKBEJwZ.s 			page 18


 225              	.L11:
 263:Middlewares/ST/STM32_USB_Host_Library/Class/HID/Src/usbh_hid.c ****   {
 226              		.loc 1 263 3 is_stmt 1 view .LVU68
 263:Middlewares/ST/STM32_USB_Host_Library/Class/HID/Src/usbh_hid.c ****   {
 227              		.loc 1 263 12 is_stmt 0 view .LVU69
 228 0012 D4F87C33 		ldr	r3, [r4, #892]
 263:Middlewares/ST/STM32_USB_Host_Library/Class/HID/Src/usbh_hid.c ****   {
 229              		.loc 1 263 26 view .LVU70
 230 0016 D869     		ldr	r0, [r3, #28]
 263:Middlewares/ST/STM32_USB_Host_Library/Class/HID/Src/usbh_hid.c ****   {
 231              		.loc 1 263 6 view .LVU71
 232 0018 28B1     		cbz	r0, .L12
 265:Middlewares/ST/STM32_USB_Host_Library/Class/HID/Src/usbh_hid.c ****     phost->pActiveClass->pData = 0U;
 233              		.loc 1 265 5 is_stmt 1 view .LVU72
 234 001a FFF7FEFF 		bl	free
 235              	.LVL14:
 266:Middlewares/ST/STM32_USB_Host_Library/Class/HID/Src/usbh_hid.c ****   }
 236              		.loc 1 266 5 view .LVU73
 266:Middlewares/ST/STM32_USB_Host_Library/Class/HID/Src/usbh_hid.c ****   }
 237              		.loc 1 266 10 is_stmt 0 view .LVU74
 238 001e D4F87C33 		ldr	r3, [r4, #892]
 266:Middlewares/ST/STM32_USB_Host_Library/Class/HID/Src/usbh_hid.c ****   }
 239              		.loc 1 266 32 view .LVU75
 240 0022 0022     		movs	r2, #0
 241 0024 DA61     		str	r2, [r3, #28]
 242              	.L12:
 269:Middlewares/ST/STM32_USB_Host_Library/Class/HID/Src/usbh_hid.c **** }
 243              		.loc 1 269 3 is_stmt 1 view .LVU76
 270:Middlewares/ST/STM32_USB_Host_Library/Class/HID/Src/usbh_hid.c **** 
 244              		.loc 1 270 1 is_stmt 0 view .LVU77
 245 0026 0020     		movs	r0, #0
 246 0028 38BD     		pop	{r3, r4, r5, pc}
 247              	.LVL15:
 248              	.L14:
 251:Middlewares/ST/STM32_USB_Host_Library/Class/HID/Src/usbh_hid.c ****     USBH_FreePipe(phost, HID_Handle->InPipe);
 249              		.loc 1 251 5 is_stmt 1 view .LVU78
 250 002a FFF7FEFF 		bl	USBH_ClosePipe
 251              	.LVL16:
 252:Middlewares/ST/STM32_USB_Host_Library/Class/HID/Src/usbh_hid.c ****     HID_Handle->InPipe = 0U;     /* Reset the pipe as Free */
 252              		.loc 1 252 5 view .LVU79
 253 002e 6978     		ldrb	r1, [r5, #1]	@ zero_extendqisi2
 254 0030 2046     		mov	r0, r4
 255 0032 FFF7FEFF 		bl	USBH_FreePipe
 256              	.LVL17:
 253:Middlewares/ST/STM32_USB_Host_Library/Class/HID/Src/usbh_hid.c ****   }
 257              		.loc 1 253 5 view .LVU80
 253:Middlewares/ST/STM32_USB_Host_Library/Class/HID/Src/usbh_hid.c ****   }
 258              		.loc 1 253 24 is_stmt 0 view .LVU81
 259 0036 0023     		movs	r3, #0
 260 0038 6B70     		strb	r3, [r5, #1]
 261 003a E8E7     		b	.L10
 262              	.L15:
 258:Middlewares/ST/STM32_USB_Host_Library/Class/HID/Src/usbh_hid.c ****     USBH_FreePipe(phost, HID_Handle->OutPipe);
 263              		.loc 1 258 5 is_stmt 1 view .LVU82
 264 003c 2046     		mov	r0, r4
 265 003e FFF7FEFF 		bl	USBH_ClosePipe
 266              	.LVL18:
ARM GAS  /tmp/ccKBEJwZ.s 			page 19


 259:Middlewares/ST/STM32_USB_Host_Library/Class/HID/Src/usbh_hid.c ****     HID_Handle->OutPipe = 0U;     /* Reset the pipe as Free */
 267              		.loc 1 259 5 view .LVU83
 268 0042 2978     		ldrb	r1, [r5]	@ zero_extendqisi2
 269 0044 2046     		mov	r0, r4
 270 0046 FFF7FEFF 		bl	USBH_FreePipe
 271              	.LVL19:
 260:Middlewares/ST/STM32_USB_Host_Library/Class/HID/Src/usbh_hid.c ****   }
 272              		.loc 1 260 5 view .LVU84
 260:Middlewares/ST/STM32_USB_Host_Library/Class/HID/Src/usbh_hid.c ****   }
 273              		.loc 1 260 25 is_stmt 0 view .LVU85
 274 004a 0023     		movs	r3, #0
 275 004c 2B70     		strb	r3, [r5]
 276 004e E0E7     		b	.L11
 277              		.cfi_endproc
 278              	.LFE332:
 280              		.section	.text.USBH_HID_InterfaceInit,"ax",%progbits
 281              		.align	1
 282              		.syntax unified
 283              		.thumb
 284              		.thumb_func
 286              	USBH_HID_InterfaceInit:
 287              	.LVL20:
 288              	.LFB331:
 138:Middlewares/ST/STM32_USB_Host_Library/Class/HID/Src/usbh_hid.c ****   USBH_StatusTypeDef status;
 289              		.loc 1 138 1 is_stmt 1 view -0
 290              		.cfi_startproc
 291              		@ args = 0, pretend = 0, frame = 0
 292              		@ frame_needed = 0, uses_anonymous_args = 0
 138:Middlewares/ST/STM32_USB_Host_Library/Class/HID/Src/usbh_hid.c ****   USBH_StatusTypeDef status;
 293              		.loc 1 138 1 is_stmt 0 view .LVU87
 294 0000 2DE9F043 		push	{r4, r5, r6, r7, r8, r9, lr}
 295              	.LCFI4:
 296              		.cfi_def_cfa_offset 28
 297              		.cfi_offset 4, -28
 298              		.cfi_offset 5, -24
 299              		.cfi_offset 6, -20
 300              		.cfi_offset 7, -16
 301              		.cfi_offset 8, -12
 302              		.cfi_offset 9, -8
 303              		.cfi_offset 14, -4
 304 0004 85B0     		sub	sp, sp, #20
 305              	.LCFI5:
 306              		.cfi_def_cfa_offset 48
 307 0006 0446     		mov	r4, r0
 139:Middlewares/ST/STM32_USB_Host_Library/Class/HID/Src/usbh_hid.c ****   HID_HandleTypeDef *HID_Handle;
 308              		.loc 1 139 3 is_stmt 1 view .LVU88
 140:Middlewares/ST/STM32_USB_Host_Library/Class/HID/Src/usbh_hid.c ****   uint8_t max_ep;
 309              		.loc 1 140 3 view .LVU89
 141:Middlewares/ST/STM32_USB_Host_Library/Class/HID/Src/usbh_hid.c ****   uint8_t num = 0U;
 310              		.loc 1 141 3 view .LVU90
 142:Middlewares/ST/STM32_USB_Host_Library/Class/HID/Src/usbh_hid.c ****   uint8_t interface;
 311              		.loc 1 142 3 view .LVU91
 312              	.LVL21:
 143:Middlewares/ST/STM32_USB_Host_Library/Class/HID/Src/usbh_hid.c **** 
 313              		.loc 1 143 3 view .LVU92
 145:Middlewares/ST/STM32_USB_Host_Library/Class/HID/Src/usbh_hid.c **** 
 314              		.loc 1 145 3 view .LVU93
ARM GAS  /tmp/ccKBEJwZ.s 			page 20


 145:Middlewares/ST/STM32_USB_Host_Library/Class/HID/Src/usbh_hid.c **** 
 315              		.loc 1 145 46 is_stmt 0 view .LVU94
 316 0008 D0F87C13 		ldr	r1, [r0, #892]
 145:Middlewares/ST/STM32_USB_Host_Library/Class/HID/Src/usbh_hid.c **** 
 317              		.loc 1 145 15 view .LVU95
 318 000c FF23     		movs	r3, #255
 319 000e 0122     		movs	r2, #1
 320 0010 0979     		ldrb	r1, [r1, #4]	@ zero_extendqisi2
 321 0012 FFF7FEFF 		bl	USBH_FindInterface
 322              	.LVL22:
 147:Middlewares/ST/STM32_USB_Host_Library/Class/HID/Src/usbh_hid.c ****   {
 323              		.loc 1 147 3 is_stmt 1 view .LVU96
 147:Middlewares/ST/STM32_USB_Host_Library/Class/HID/Src/usbh_hid.c ****   {
 324              		.loc 1 147 6 is_stmt 0 view .LVU97
 325 0016 0128     		cmp	r0, #1
 326 0018 00F28980 		bhi	.L25
 327 001c 0546     		mov	r5, r0
 153:Middlewares/ST/STM32_USB_Host_Library/Class/HID/Src/usbh_hid.c **** 
 328              		.loc 1 153 3 is_stmt 1 view .LVU98
 153:Middlewares/ST/STM32_USB_Host_Library/Class/HID/Src/usbh_hid.c **** 
 329              		.loc 1 153 12 is_stmt 0 view .LVU99
 330 001e 0146     		mov	r1, r0
 331 0020 2046     		mov	r0, r4
 332              	.LVL23:
 153:Middlewares/ST/STM32_USB_Host_Library/Class/HID/Src/usbh_hid.c **** 
 333              		.loc 1 153 12 view .LVU100
 334 0022 FFF7FEFF 		bl	USBH_SelectInterface
 335              	.LVL24:
 155:Middlewares/ST/STM32_USB_Host_Library/Class/HID/Src/usbh_hid.c ****   {
 336              		.loc 1 155 3 is_stmt 1 view .LVU101
 155:Middlewares/ST/STM32_USB_Host_Library/Class/HID/Src/usbh_hid.c ****   {
 337              		.loc 1 155 6 is_stmt 0 view .LVU102
 338 0026 8046     		mov	r8, r0
 339 0028 0028     		cmp	r0, #0
 340 002a 40F08680 		bne	.L26
 160:Middlewares/ST/STM32_USB_Host_Library/Class/HID/Src/usbh_hid.c ****   HID_Handle = (HID_HandleTypeDef *) phost->pActiveClass->pData;
 341              		.loc 1 160 3 is_stmt 1 view .LVU103
 160:Middlewares/ST/STM32_USB_Host_Library/Class/HID/Src/usbh_hid.c ****   HID_Handle = (HID_HandleTypeDef *) phost->pActiveClass->pData;
 342              		.loc 1 160 8 is_stmt 0 view .LVU104
 343 002e D4F87C63 		ldr	r6, [r4, #892]
 160:Middlewares/ST/STM32_USB_Host_Library/Class/HID/Src/usbh_hid.c ****   HID_Handle = (HID_HandleTypeDef *) phost->pActiveClass->pData;
 344              		.loc 1 160 53 view .LVU105
 345 0032 3420     		movs	r0, #52
 346              	.LVL25:
 160:Middlewares/ST/STM32_USB_Host_Library/Class/HID/Src/usbh_hid.c ****   HID_Handle = (HID_HandleTypeDef *) phost->pActiveClass->pData;
 347              		.loc 1 160 53 view .LVU106
 348 0034 FFF7FEFF 		bl	malloc
 349              	.LVL26:
 160:Middlewares/ST/STM32_USB_Host_Library/Class/HID/Src/usbh_hid.c ****   HID_Handle = (HID_HandleTypeDef *) phost->pActiveClass->pData;
 350              		.loc 1 160 30 discriminator 1 view .LVU107
 351 0038 F061     		str	r0, [r6, #28]
 161:Middlewares/ST/STM32_USB_Host_Library/Class/HID/Src/usbh_hid.c **** 
 352              		.loc 1 161 3 is_stmt 1 view .LVU108
 161:Middlewares/ST/STM32_USB_Host_Library/Class/HID/Src/usbh_hid.c **** 
 353              		.loc 1 161 43 is_stmt 0 view .LVU109
 354 003a D4F87C33 		ldr	r3, [r4, #892]
 161:Middlewares/ST/STM32_USB_Host_Library/Class/HID/Src/usbh_hid.c **** 
ARM GAS  /tmp/ccKBEJwZ.s 			page 21


 355              		.loc 1 161 14 view .LVU110
 356 003e DE69     		ldr	r6, [r3, #28]
 357              	.LVL27:
 163:Middlewares/ST/STM32_USB_Host_Library/Class/HID/Src/usbh_hid.c ****   {
 358              		.loc 1 163 3 is_stmt 1 view .LVU111
 163:Middlewares/ST/STM32_USB_Host_Library/Class/HID/Src/usbh_hid.c ****   {
 359              		.loc 1 163 6 is_stmt 0 view .LVU112
 360 0040 002E     		cmp	r6, #0
 361 0042 7DD0     		beq	.L27
 170:Middlewares/ST/STM32_USB_Host_Library/Class/HID/Src/usbh_hid.c **** 
 362              		.loc 1 170 3 is_stmt 1 view .LVU113
 363 0044 3422     		movs	r2, #52
 364 0046 0021     		movs	r1, #0
 365 0048 3046     		mov	r0, r6
 366 004a FFF7FEFF 		bl	memset
 367              	.LVL28:
 172:Middlewares/ST/STM32_USB_Host_Library/Class/HID/Src/usbh_hid.c **** 
 368              		.loc 1 172 3 view .LVU114
 172:Middlewares/ST/STM32_USB_Host_Library/Class/HID/Src/usbh_hid.c **** 
 369              		.loc 1 172 21 is_stmt 0 view .LVU115
 370 004e 0723     		movs	r3, #7
 371 0050 B370     		strb	r3, [r6, #2]
 175:Middlewares/ST/STM32_USB_Host_Library/Class/HID/Src/usbh_hid.c ****   {
 372              		.loc 1 175 3 is_stmt 1 view .LVU116
 175:Middlewares/ST/STM32_USB_Host_Library/Class/HID/Src/usbh_hid.c ****   {
 373              		.loc 1 175 48 is_stmt 0 view .LVU117
 374 0052 1A23     		movs	r3, #26
 375 0054 03FB0543 		mla	r3, r3, r5, r4
 376 0058 93F84933 		ldrb	r3, [r3, #841]	@ zero_extendqisi2
 175:Middlewares/ST/STM32_USB_Host_Library/Class/HID/Src/usbh_hid.c ****   {
 377              		.loc 1 175 6 view .LVU118
 378 005c 012B     		cmp	r3, #1
 379 005e 21D0     		beq	.L30
 180:Middlewares/ST/STM32_USB_Host_Library/Class/HID/Src/usbh_hid.c ****   {
 380              		.loc 1 180 8 is_stmt 1 view .LVU119
 180:Middlewares/ST/STM32_USB_Host_Library/Class/HID/Src/usbh_hid.c ****   {
 381              		.loc 1 180 11 is_stmt 0 view .LVU120
 382 0060 022B     		cmp	r3, #2
 383 0062 70D1     		bne	.L28
 182:Middlewares/ST/STM32_USB_Host_Library/Class/HID/Src/usbh_hid.c ****     HID_Handle->Init = USBH_HID_MouseInit;
 384              		.loc 1 182 5 is_stmt 1 view .LVU121
 182:Middlewares/ST/STM32_USB_Host_Library/Class/HID/Src/usbh_hid.c ****     HID_Handle->Init = USBH_HID_MouseInit;
 385              		.loc 1 182 5 view .LVU122
 182:Middlewares/ST/STM32_USB_Host_Library/Class/HID/Src/usbh_hid.c ****     HID_Handle->Init = USBH_HID_MouseInit;
 386              		.loc 1 182 5 view .LVU123
 183:Middlewares/ST/STM32_USB_Host_Library/Class/HID/Src/usbh_hid.c ****   }
 387              		.loc 1 183 5 view .LVU124
 183:Middlewares/ST/STM32_USB_Host_Library/Class/HID/Src/usbh_hid.c ****   }
 388              		.loc 1 183 22 is_stmt 0 view .LVU125
 389 0064 394B     		ldr	r3, .L32
 390 0066 3363     		str	r3, [r6, #48]
 391              	.L19:
 191:Middlewares/ST/STM32_USB_Host_Library/Class/HID/Src/usbh_hid.c ****   HID_Handle->ctl_state = HID_REQ_INIT;
 392              		.loc 1 191 3 is_stmt 1 view .LVU126
 191:Middlewares/ST/STM32_USB_Host_Library/Class/HID/Src/usbh_hid.c ****   HID_Handle->ctl_state = HID_REQ_INIT;
 393              		.loc 1 191 25 is_stmt 0 view .LVU127
 394 0068 0023     		movs	r3, #0
ARM GAS  /tmp/ccKBEJwZ.s 			page 22


 395 006a B370     		strb	r3, [r6, #2]
 192:Middlewares/ST/STM32_USB_Host_Library/Class/HID/Src/usbh_hid.c ****   HID_Handle->ep_addr   = phost->device.CfgDesc.Itf_Desc[interface].Ep_Desc[0].bEndpointAddress;
 396              		.loc 1 192 3 is_stmt 1 view .LVU128
 193:Middlewares/ST/STM32_USB_Host_Library/Class/HID/Src/usbh_hid.c ****   HID_Handle->length    = phost->device.CfgDesc.Itf_Desc[interface].Ep_Desc[0].wMaxPacketSize;
 397              		.loc 1 193 3 view .LVU129
 193:Middlewares/ST/STM32_USB_Host_Library/Class/HID/Src/usbh_hid.c ****   HID_Handle->length    = phost->device.CfgDesc.Itf_Desc[interface].Ep_Desc[0].wMaxPacketSize;
 398              		.loc 1 193 79 is_stmt 0 view .LVU130
 399 006c 1A23     		movs	r3, #26
 400 006e 03FB0543 		mla	r3, r3, r5, r4
 401 0072 93F84E23 		ldrb	r2, [r3, #846]	@ zero_extendqisi2
 193:Middlewares/ST/STM32_USB_Host_Library/Class/HID/Src/usbh_hid.c ****   HID_Handle->length    = phost->device.CfgDesc.Itf_Desc[interface].Ep_Desc[0].wMaxPacketSize;
 402              		.loc 1 193 25 view .LVU131
 403 0076 B276     		strb	r2, [r6, #26]
 194:Middlewares/ST/STM32_USB_Host_Library/Class/HID/Src/usbh_hid.c ****   HID_Handle->poll      = phost->device.CfgDesc.Itf_Desc[interface].Ep_Desc[0].bInterval;
 404              		.loc 1 194 3 is_stmt 1 view .LVU132
 194:Middlewares/ST/STM32_USB_Host_Library/Class/HID/Src/usbh_hid.c ****   HID_Handle->poll      = phost->device.CfgDesc.Itf_Desc[interface].Ep_Desc[0].bInterval;
 405              		.loc 1 194 79 is_stmt 0 view .LVU133
 406 0078 B3F85023 		ldrh	r2, [r3, #848]
 194:Middlewares/ST/STM32_USB_Host_Library/Class/HID/Src/usbh_hid.c ****   HID_Handle->poll      = phost->device.CfgDesc.Itf_Desc[interface].Ep_Desc[0].bInterval;
 407              		.loc 1 194 25 view .LVU134
 408 007c 3283     		strh	r2, [r6, #24]	@ movhi
 195:Middlewares/ST/STM32_USB_Host_Library/Class/HID/Src/usbh_hid.c **** 
 409              		.loc 1 195 3 is_stmt 1 view .LVU135
 195:Middlewares/ST/STM32_USB_Host_Library/Class/HID/Src/usbh_hid.c **** 
 410              		.loc 1 195 79 is_stmt 0 view .LVU136
 411 007e 93F85233 		ldrb	r3, [r3, #850]	@ zero_extendqisi2
 195:Middlewares/ST/STM32_USB_Host_Library/Class/HID/Src/usbh_hid.c **** 
 412              		.loc 1 195 25 view .LVU137
 413 0082 B383     		strh	r3, [r6, #28]	@ movhi
 197:Middlewares/ST/STM32_USB_Host_Library/Class/HID/Src/usbh_hid.c ****   {
 414              		.loc 1 197 3 is_stmt 1 view .LVU138
 197:Middlewares/ST/STM32_USB_Host_Library/Class/HID/Src/usbh_hid.c ****   {
 415              		.loc 1 197 6 is_stmt 0 view .LVU139
 416 0084 092B     		cmp	r3, #9
 417 0086 01D8     		bhi	.L20
 199:Middlewares/ST/STM32_USB_Host_Library/Class/HID/Src/usbh_hid.c ****   }
 418              		.loc 1 199 5 is_stmt 1 view .LVU140
 199:Middlewares/ST/STM32_USB_Host_Library/Class/HID/Src/usbh_hid.c ****   }
 419              		.loc 1 199 22 is_stmt 0 view .LVU141
 420 0088 0A23     		movs	r3, #10
 421 008a B383     		strh	r3, [r6, #28]	@ movhi
 422              	.L20:
 205:Middlewares/ST/STM32_USB_Host_Library/Class/HID/Src/usbh_hid.c ****              phost->device.CfgDesc.Itf_Desc[interface].bNumEndpoints : USBH_MAX_NUM_ENDPOINTS);
 423              		.loc 1 205 3 is_stmt 1 view .LVU142
 205:Middlewares/ST/STM32_USB_Host_Library/Class/HID/Src/usbh_hid.c ****              phost->device.CfgDesc.Itf_Desc[interface].bNumEndpoints : USBH_MAX_NUM_ENDPOINTS);
 424              		.loc 1 205 55 is_stmt 0 view .LVU143
 425 008c 1A23     		movs	r3, #26
 426 008e 03FB0543 		mla	r3, r3, r5, r4
 427 0092 93F84693 		ldrb	r9, [r3, #838]	@ zero_extendqisi2
 205:Middlewares/ST/STM32_USB_Host_Library/Class/HID/Src/usbh_hid.c ****              phost->device.CfgDesc.Itf_Desc[interface].bNumEndpoints : USBH_MAX_NUM_ENDPOINTS);
 428              		.loc 1 205 10 view .LVU144
 429 0096 B9F1020F 		cmp	r9, #2
 430 009a 28BF     		it	cs
 431 009c 4FF00209 		movcs	r9, #2
 432              	.LVL29:
 210:Middlewares/ST/STM32_USB_Host_Library/Class/HID/Src/usbh_hid.c ****   {
 433              		.loc 1 210 3 is_stmt 1 view .LVU145
ARM GAS  /tmp/ccKBEJwZ.s 			page 23


 210:Middlewares/ST/STM32_USB_Host_Library/Class/HID/Src/usbh_hid.c ****   {
 434              		.loc 1 210 12 is_stmt 0 view .LVU146
 435 00a0 4746     		mov	r7, r8
 210:Middlewares/ST/STM32_USB_Host_Library/Class/HID/Src/usbh_hid.c ****   {
 436              		.loc 1 210 3 view .LVU147
 437 00a2 1CE0     		b	.L21
 438              	.LVL30:
 439              	.L30:
 177:Middlewares/ST/STM32_USB_Host_Library/Class/HID/Src/usbh_hid.c ****     HID_Handle->Init = USBH_HID_KeybdInit;
 440              		.loc 1 177 5 is_stmt 1 view .LVU148
 177:Middlewares/ST/STM32_USB_Host_Library/Class/HID/Src/usbh_hid.c ****     HID_Handle->Init = USBH_HID_KeybdInit;
 441              		.loc 1 177 5 view .LVU149
 177:Middlewares/ST/STM32_USB_Host_Library/Class/HID/Src/usbh_hid.c ****     HID_Handle->Init = USBH_HID_KeybdInit;
 442              		.loc 1 177 5 view .LVU150
 178:Middlewares/ST/STM32_USB_Host_Library/Class/HID/Src/usbh_hid.c ****   }
 443              		.loc 1 178 5 view .LVU151
 178:Middlewares/ST/STM32_USB_Host_Library/Class/HID/Src/usbh_hid.c ****   }
 444              		.loc 1 178 22 is_stmt 0 view .LVU152
 445 00a4 2A4B     		ldr	r3, .L32+4
 446 00a6 3363     		str	r3, [r6, #48]
 447 00a8 DEE7     		b	.L19
 448              	.LVL31:
 449              	.L31:
 214:Middlewares/ST/STM32_USB_Host_Library/Class/HID/Src/usbh_hid.c ****       HID_Handle->InPipe = USBH_AllocPipe(phost, HID_Handle->InEp);
 450              		.loc 1 214 7 is_stmt 1 view .LVU153
 214:Middlewares/ST/STM32_USB_Host_Library/Class/HID/Src/usbh_hid.c ****       HID_Handle->InPipe = USBH_AllocPipe(phost, HID_Handle->InEp);
 451              		.loc 1 214 24 is_stmt 0 view .LVU154
 452 00aa 3171     		strb	r1, [r6, #4]
 215:Middlewares/ST/STM32_USB_Host_Library/Class/HID/Src/usbh_hid.c **** 
 453              		.loc 1 215 7 is_stmt 1 view .LVU155
 215:Middlewares/ST/STM32_USB_Host_Library/Class/HID/Src/usbh_hid.c **** 
 454              		.loc 1 215 28 is_stmt 0 view .LVU156
 455 00ac 2046     		mov	r0, r4
 456 00ae FFF7FEFF 		bl	USBH_AllocPipe
 457              	.LVL32:
 458 00b2 0146     		mov	r1, r0
 215:Middlewares/ST/STM32_USB_Host_Library/Class/HID/Src/usbh_hid.c **** 
 459              		.loc 1 215 26 discriminator 1 view .LVU157
 460 00b4 7070     		strb	r0, [r6, #1]
 218:Middlewares/ST/STM32_USB_Host_Library/Class/HID/Src/usbh_hid.c ****                     phost->device.speed, USB_EP_TYPE_INTR, HID_Handle->length);
 461              		.loc 1 218 7 is_stmt 1 view .LVU158
 462 00b6 3279     		ldrb	r2, [r6, #4]	@ zero_extendqisi2
 463 00b8 338B     		ldrh	r3, [r6, #24]
 464 00ba 0293     		str	r3, [sp, #8]
 465 00bc 0323     		movs	r3, #3
 466 00be 0193     		str	r3, [sp, #4]
 467 00c0 94F81D33 		ldrb	r3, [r4, #797]	@ zero_extendqisi2
 468 00c4 0093     		str	r3, [sp]
 469 00c6 94F81C33 		ldrb	r3, [r4, #796]	@ zero_extendqisi2
 470 00ca 2046     		mov	r0, r4
 471 00cc FFF7FEFF 		bl	USBH_OpenPipe
 472              	.LVL33:
 221:Middlewares/ST/STM32_USB_Host_Library/Class/HID/Src/usbh_hid.c ****     }
 473              		.loc 1 221 7 view .LVU159
 474 00d0 0022     		movs	r2, #0
 475 00d2 7178     		ldrb	r1, [r6, #1]	@ zero_extendqisi2
 476 00d4 2046     		mov	r0, r4
ARM GAS  /tmp/ccKBEJwZ.s 			page 24


 477 00d6 FFF7FEFF 		bl	USBH_LL_SetToggle
 478              	.LVL34:
 479              	.L23:
 210:Middlewares/ST/STM32_USB_Host_Library/Class/HID/Src/usbh_hid.c ****   {
 480              		.loc 1 210 35 discriminator 2 view .LVU160
 481 00da 0137     		adds	r7, r7, #1
 482              	.LVL35:
 210:Middlewares/ST/STM32_USB_Host_Library/Class/HID/Src/usbh_hid.c ****   {
 483              		.loc 1 210 35 is_stmt 0 discriminator 2 view .LVU161
 484 00dc FFB2     		uxtb	r7, r7
 485              	.LVL36:
 486              	.L21:
 210:Middlewares/ST/STM32_USB_Host_Library/Class/HID/Src/usbh_hid.c ****   {
 487              		.loc 1 210 22 is_stmt 1 discriminator 1 view .LVU162
 488 00de 4F45     		cmp	r7, r9
 489 00e0 27D2     		bcs	.L17
 212:Middlewares/ST/STM32_USB_Host_Library/Class/HID/Src/usbh_hid.c ****     {
 490              		.loc 1 212 5 view .LVU163
 212:Middlewares/ST/STM32_USB_Host_Library/Class/HID/Src/usbh_hid.c ****     {
 491              		.loc 1 212 63 is_stmt 0 view .LVU164
 492 00e2 7A1C     		adds	r2, r7, #1
 493 00e4 1A23     		movs	r3, #26
 494 00e6 05FB03F3 		mul	r3, r5, r3
 495 00ea 03EBC203 		add	r3, r3, r2, lsl #3
 496 00ee 2344     		add	r3, r3, r4
 497 00f0 93F84613 		ldrb	r1, [r3, #838]	@ zero_extendqisi2
 212:Middlewares/ST/STM32_USB_Host_Library/Class/HID/Src/usbh_hid.c ****     {
 498              		.loc 1 212 9 view .LVU165
 499 00f4 93F94633 		ldrsb	r3, [r3, #838]
 212:Middlewares/ST/STM32_USB_Host_Library/Class/HID/Src/usbh_hid.c ****     {
 500              		.loc 1 212 8 view .LVU166
 501 00f8 002B     		cmp	r3, #0
 502 00fa D6DB     		blt	.L31
 225:Middlewares/ST/STM32_USB_Host_Library/Class/HID/Src/usbh_hid.c ****       HID_Handle->OutPipe  = USBH_AllocPipe(phost, HID_Handle->OutEp);
 503              		.loc 1 225 7 is_stmt 1 view .LVU167
 225:Middlewares/ST/STM32_USB_Host_Library/Class/HID/Src/usbh_hid.c ****       HID_Handle->OutPipe  = USBH_AllocPipe(phost, HID_Handle->OutEp);
 504              		.loc 1 225 25 is_stmt 0 view .LVU168
 505 00fc F170     		strb	r1, [r6, #3]
 226:Middlewares/ST/STM32_USB_Host_Library/Class/HID/Src/usbh_hid.c **** 
 506              		.loc 1 226 7 is_stmt 1 view .LVU169
 226:Middlewares/ST/STM32_USB_Host_Library/Class/HID/Src/usbh_hid.c **** 
 507              		.loc 1 226 30 is_stmt 0 view .LVU170
 508 00fe 2046     		mov	r0, r4
 509 0100 FFF7FEFF 		bl	USBH_AllocPipe
 510              	.LVL37:
 511 0104 0146     		mov	r1, r0
 226:Middlewares/ST/STM32_USB_Host_Library/Class/HID/Src/usbh_hid.c **** 
 512              		.loc 1 226 28 discriminator 1 view .LVU171
 513 0106 3070     		strb	r0, [r6]
 229:Middlewares/ST/STM32_USB_Host_Library/Class/HID/Src/usbh_hid.c ****                     phost->device.speed, USB_EP_TYPE_INTR, HID_Handle->length);
 514              		.loc 1 229 7 is_stmt 1 view .LVU172
 515 0108 F278     		ldrb	r2, [r6, #3]	@ zero_extendqisi2
 516 010a 338B     		ldrh	r3, [r6, #24]
 517 010c 0293     		str	r3, [sp, #8]
 518 010e 0323     		movs	r3, #3
 519 0110 0193     		str	r3, [sp, #4]
 520 0112 94F81D33 		ldrb	r3, [r4, #797]	@ zero_extendqisi2
ARM GAS  /tmp/ccKBEJwZ.s 			page 25


 521 0116 0093     		str	r3, [sp]
 522 0118 94F81C33 		ldrb	r3, [r4, #796]	@ zero_extendqisi2
 523 011c 2046     		mov	r0, r4
 524 011e FFF7FEFF 		bl	USBH_OpenPipe
 525              	.LVL38:
 232:Middlewares/ST/STM32_USB_Host_Library/Class/HID/Src/usbh_hid.c ****     }
 526              		.loc 1 232 7 view .LVU173
 527 0122 0022     		movs	r2, #0
 528 0124 3178     		ldrb	r1, [r6]	@ zero_extendqisi2
 529 0126 2046     		mov	r0, r4
 530 0128 FFF7FEFF 		bl	USBH_LL_SetToggle
 531              	.LVL39:
 532 012c D5E7     		b	.L23
 533              	.LVL40:
 534              	.L25:
 150:Middlewares/ST/STM32_USB_Host_Library/Class/HID/Src/usbh_hid.c ****   }
 535              		.loc 1 150 12 is_stmt 0 view .LVU174
 536 012e 4FF00208 		mov	r8, #2
 537              	.LVL41:
 538              	.L17:
 237:Middlewares/ST/STM32_USB_Host_Library/Class/HID/Src/usbh_hid.c **** 
 539              		.loc 1 237 1 view .LVU175
 540 0132 4046     		mov	r0, r8
 541 0134 05B0     		add	sp, sp, #20
 542              	.LCFI6:
 543              		.cfi_remember_state
 544              		.cfi_def_cfa_offset 28
 545              		@ sp needed
 546 0136 BDE8F083 		pop	{r4, r5, r6, r7, r8, r9, pc}
 547              	.LVL42:
 548              	.L26:
 549              	.LCFI7:
 550              		.cfi_restore_state
 157:Middlewares/ST/STM32_USB_Host_Library/Class/HID/Src/usbh_hid.c ****   }
 551              		.loc 1 157 12 view .LVU176
 552 013a 4FF00208 		mov	r8, #2
 553 013e F8E7     		b	.L17
 554              	.LVL43:
 555              	.L27:
 166:Middlewares/ST/STM32_USB_Host_Library/Class/HID/Src/usbh_hid.c ****   }
 556              		.loc 1 166 12 view .LVU177
 557 0140 4FF00208 		mov	r8, #2
 558              	.LVL44:
 166:Middlewares/ST/STM32_USB_Host_Library/Class/HID/Src/usbh_hid.c ****   }
 559              		.loc 1 166 12 view .LVU178
 560 0144 F5E7     		b	.L17
 561              	.LVL45:
 562              	.L28:
 188:Middlewares/ST/STM32_USB_Host_Library/Class/HID/Src/usbh_hid.c ****   }
 563              		.loc 1 188 12 view .LVU179
 564 0146 4FF00208 		mov	r8, #2
 565              	.LVL46:
 188:Middlewares/ST/STM32_USB_Host_Library/Class/HID/Src/usbh_hid.c ****   }
 566              		.loc 1 188 12 view .LVU180
 567 014a F2E7     		b	.L17
 568              	.L33:
 569              		.align	2
ARM GAS  /tmp/ccKBEJwZ.s 			page 26


 570              	.L32:
 571 014c 00000000 		.word	USBH_HID_MouseInit
 572 0150 00000000 		.word	USBH_HID_KeybdInit
 573              		.cfi_endproc
 574              	.LFE331:
 576              		.section	.text.USBH_HID_GetHIDReportDescriptor,"ax",%progbits
 577              		.align	1
 578              		.global	USBH_HID_GetHIDReportDescriptor
 579              		.syntax unified
 580              		.thumb
 581              		.thumb_func
 583              	USBH_HID_GetHIDReportDescriptor:
 584              	.LVL47:
 585              	.LFB336:
 535:Middlewares/ST/STM32_USB_Host_Library/Class/HID/Src/usbh_hid.c **** 
 586              		.loc 1 535 1 is_stmt 1 view -0
 587              		.cfi_startproc
 588              		@ args = 0, pretend = 0, frame = 0
 589              		@ frame_needed = 0, uses_anonymous_args = 0
 535:Middlewares/ST/STM32_USB_Host_Library/Class/HID/Src/usbh_hid.c **** 
 590              		.loc 1 535 1 is_stmt 0 view .LVU182
 591 0000 00B5     		push	{lr}
 592              	.LCFI8:
 593              		.cfi_def_cfa_offset 4
 594              		.cfi_offset 14, -4
 595 0002 83B0     		sub	sp, sp, #12
 596              	.LCFI9:
 597              		.cfi_def_cfa_offset 16
 537:Middlewares/ST/STM32_USB_Host_Library/Class/HID/Src/usbh_hid.c **** 
 598              		.loc 1 537 3 is_stmt 1 view .LVU183
 539:Middlewares/ST/STM32_USB_Host_Library/Class/HID/Src/usbh_hid.c ****                               USB_REQ_RECIPIENT_INTERFACE | USB_REQ_TYPE_STANDARD,
 599              		.loc 1 539 3 view .LVU184
 539:Middlewares/ST/STM32_USB_Host_Library/Class/HID/Src/usbh_hid.c ****                               USB_REQ_RECIPIENT_INTERFACE | USB_REQ_TYPE_STANDARD,
 600              		.loc 1 539 12 is_stmt 0 view .LVU185
 601 0004 0091     		str	r1, [sp]
 602 0006 00F58E73 		add	r3, r0, #284
 603 000a 4FF40852 		mov	r2, #8704
 604 000e 0121     		movs	r1, #1
 605              	.LVL48:
 539:Middlewares/ST/STM32_USB_Host_Library/Class/HID/Src/usbh_hid.c ****                               USB_REQ_RECIPIENT_INTERFACE | USB_REQ_TYPE_STANDARD,
 606              		.loc 1 539 12 view .LVU186
 607 0010 FFF7FEFF 		bl	USBH_GetDescriptor
 608              	.LVL49:
 552:Middlewares/ST/STM32_USB_Host_Library/Class/HID/Src/usbh_hid.c **** }
 609              		.loc 1 552 3 is_stmt 1 view .LVU187
 553:Middlewares/ST/STM32_USB_Host_Library/Class/HID/Src/usbh_hid.c **** 
 610              		.loc 1 553 1 is_stmt 0 view .LVU188
 611 0014 03B0     		add	sp, sp, #12
 612              	.LCFI10:
 613              		.cfi_def_cfa_offset 4
 614              		@ sp needed
 615 0016 5DF804FB 		ldr	pc, [sp], #4
 616              		.cfi_endproc
 617              	.LFE336:
 619              		.section	.text.USBH_HID_GetHIDDescriptor,"ax",%progbits
 620              		.align	1
 621              		.global	USBH_HID_GetHIDDescriptor
ARM GAS  /tmp/ccKBEJwZ.s 			page 27


 622              		.syntax unified
 623              		.thumb
 624              		.thumb_func
 626              	USBH_HID_GetHIDDescriptor:
 627              	.LVL50:
 628              	.LFB337:
 565:Middlewares/ST/STM32_USB_Host_Library/Class/HID/Src/usbh_hid.c ****   USBH_StatusTypeDef status;
 629              		.loc 1 565 1 is_stmt 1 view -0
 630              		.cfi_startproc
 631              		@ args = 0, pretend = 0, frame = 0
 632              		@ frame_needed = 0, uses_anonymous_args = 0
 565:Middlewares/ST/STM32_USB_Host_Library/Class/HID/Src/usbh_hid.c ****   USBH_StatusTypeDef status;
 633              		.loc 1 565 1 is_stmt 0 view .LVU190
 634 0000 00B5     		push	{lr}
 635              	.LCFI11:
 636              		.cfi_def_cfa_offset 4
 637              		.cfi_offset 14, -4
 638 0002 83B0     		sub	sp, sp, #12
 639              	.LCFI12:
 640              		.cfi_def_cfa_offset 16
 566:Middlewares/ST/STM32_USB_Host_Library/Class/HID/Src/usbh_hid.c **** 
 641              		.loc 1 566 3 is_stmt 1 view .LVU191
 568:Middlewares/ST/STM32_USB_Host_Library/Class/HID/Src/usbh_hid.c ****                               USB_REQ_RECIPIENT_INTERFACE | USB_REQ_TYPE_STANDARD,
 642              		.loc 1 568 3 view .LVU192
 568:Middlewares/ST/STM32_USB_Host_Library/Class/HID/Src/usbh_hid.c ****                               USB_REQ_RECIPIENT_INTERFACE | USB_REQ_TYPE_STANDARD,
 643              		.loc 1 568 12 is_stmt 0 view .LVU193
 644 0004 0091     		str	r1, [sp]
 645 0006 00F58E73 		add	r3, r0, #284
 646 000a 4FF40452 		mov	r2, #8448
 647 000e 0121     		movs	r1, #1
 648              	.LVL51:
 568:Middlewares/ST/STM32_USB_Host_Library/Class/HID/Src/usbh_hid.c ****                               USB_REQ_RECIPIENT_INTERFACE | USB_REQ_TYPE_STANDARD,
 649              		.loc 1 568 12 view .LVU194
 650 0010 FFF7FEFF 		bl	USBH_GetDescriptor
 651              	.LVL52:
 574:Middlewares/ST/STM32_USB_Host_Library/Class/HID/Src/usbh_hid.c **** }
 652              		.loc 1 574 3 is_stmt 1 view .LVU195
 575:Middlewares/ST/STM32_USB_Host_Library/Class/HID/Src/usbh_hid.c **** 
 653              		.loc 1 575 1 is_stmt 0 view .LVU196
 654 0014 03B0     		add	sp, sp, #12
 655              	.LCFI13:
 656              		.cfi_def_cfa_offset 4
 657              		@ sp needed
 658 0016 5DF804FB 		ldr	pc, [sp], #4
 659              		.cfi_endproc
 660              	.LFE337:
 662              		.section	.text.USBH_HID_SetIdle,"ax",%progbits
 663              		.align	1
 664              		.global	USBH_HID_SetIdle
 665              		.syntax unified
 666              		.thumb
 667              		.thumb_func
 669              	USBH_HID_SetIdle:
 670              	.LVL53:
 671              	.LFB338:
 588:Middlewares/ST/STM32_USB_Host_Library/Class/HID/Src/usbh_hid.c **** 
 672              		.loc 1 588 1 is_stmt 1 view -0
ARM GAS  /tmp/ccKBEJwZ.s 			page 28


 673              		.cfi_startproc
 674              		@ args = 0, pretend = 0, frame = 0
 675              		@ frame_needed = 0, uses_anonymous_args = 0
 588:Middlewares/ST/STM32_USB_Host_Library/Class/HID/Src/usbh_hid.c **** 
 676              		.loc 1 588 1 is_stmt 0 view .LVU198
 677 0000 08B5     		push	{r3, lr}
 678              	.LCFI14:
 679              		.cfi_def_cfa_offset 8
 680              		.cfi_offset 3, -8
 681              		.cfi_offset 14, -4
 590:Middlewares/ST/STM32_USB_Host_Library/Class/HID/Src/usbh_hid.c ****                                          USB_REQ_TYPE_CLASS;
 682              		.loc 1 590 3 is_stmt 1 view .LVU199
 590:Middlewares/ST/STM32_USB_Host_Library/Class/HID/Src/usbh_hid.c ****                                          USB_REQ_TYPE_CLASS;
 683              		.loc 1 590 40 is_stmt 0 view .LVU200
 684 0002 4FF0210C 		mov	ip, #33
 685 0006 80F810C0 		strb	ip, [r0, #16]
 594:Middlewares/ST/STM32_USB_Host_Library/Class/HID/Src/usbh_hid.c ****   phost->Control.setup.b.wValue.w = (uint16_t)(((uint32_t)duration << 8U) | (uint32_t)reportId);
 686              		.loc 1 594 3 is_stmt 1 view .LVU201
 594:Middlewares/ST/STM32_USB_Host_Library/Class/HID/Src/usbh_hid.c ****   phost->Control.setup.b.wValue.w = (uint16_t)(((uint32_t)duration << 8U) | (uint32_t)reportId);
 687              		.loc 1 594 35 is_stmt 0 view .LVU202
 688 000a 4FF00A0C 		mov	ip, #10
 689 000e 80F811C0 		strb	ip, [r0, #17]
 595:Middlewares/ST/STM32_USB_Host_Library/Class/HID/Src/usbh_hid.c **** 
 690              		.loc 1 595 3 is_stmt 1 view .LVU203
 595:Middlewares/ST/STM32_USB_Host_Library/Class/HID/Src/usbh_hid.c **** 
 691              		.loc 1 595 37 is_stmt 0 view .LVU204
 692 0012 42EA0122 		orr	r2, r2, r1, lsl #8
 693              	.LVL54:
 595:Middlewares/ST/STM32_USB_Host_Library/Class/HID/Src/usbh_hid.c **** 
 694              		.loc 1 595 35 view .LVU205
 695 0016 4282     		strh	r2, [r0, #18]	@ movhi
 597:Middlewares/ST/STM32_USB_Host_Library/Class/HID/Src/usbh_hid.c ****   phost->Control.setup.b.wLength.w = 0U;
 696              		.loc 1 597 3 is_stmt 1 view .LVU206
 597:Middlewares/ST/STM32_USB_Host_Library/Class/HID/Src/usbh_hid.c ****   phost->Control.setup.b.wLength.w = 0U;
 697              		.loc 1 597 35 is_stmt 0 view .LVU207
 698 0018 0021     		movs	r1, #0
 699              	.LVL55:
 597:Middlewares/ST/STM32_USB_Host_Library/Class/HID/Src/usbh_hid.c ****   phost->Control.setup.b.wLength.w = 0U;
 700              		.loc 1 597 35 view .LVU208
 701 001a 8182     		strh	r1, [r0, #20]	@ movhi
 598:Middlewares/ST/STM32_USB_Host_Library/Class/HID/Src/usbh_hid.c **** 
 702              		.loc 1 598 3 is_stmt 1 view .LVU209
 598:Middlewares/ST/STM32_USB_Host_Library/Class/HID/Src/usbh_hid.c **** 
 703              		.loc 1 598 36 is_stmt 0 view .LVU210
 704 001c C182     		strh	r1, [r0, #22]	@ movhi
 600:Middlewares/ST/STM32_USB_Host_Library/Class/HID/Src/usbh_hid.c **** }
 705              		.loc 1 600 3 is_stmt 1 view .LVU211
 600:Middlewares/ST/STM32_USB_Host_Library/Class/HID/Src/usbh_hid.c **** }
 706              		.loc 1 600 10 is_stmt 0 view .LVU212
 707 001e 0A46     		mov	r2, r1
 708 0020 FFF7FEFF 		bl	USBH_CtlReq
 709              	.LVL56:
 601:Middlewares/ST/STM32_USB_Host_Library/Class/HID/Src/usbh_hid.c **** 
 710              		.loc 1 601 1 view .LVU213
 711 0024 08BD     		pop	{r3, pc}
 712              		.cfi_endproc
 713              	.LFE338:
ARM GAS  /tmp/ccKBEJwZ.s 			page 29


 715              		.section	.text.USBH_HID_SetReport,"ax",%progbits
 716              		.align	1
 717              		.global	USBH_HID_SetReport
 718              		.syntax unified
 719              		.thumb
 720              		.thumb_func
 722              	USBH_HID_SetReport:
 723              	.LVL57:
 724              	.LFB339:
 619:Middlewares/ST/STM32_USB_Host_Library/Class/HID/Src/usbh_hid.c **** 
 725              		.loc 1 619 1 is_stmt 1 view -0
 726              		.cfi_startproc
 727              		@ args = 4, pretend = 0, frame = 0
 728              		@ frame_needed = 0, uses_anonymous_args = 0
 619:Middlewares/ST/STM32_USB_Host_Library/Class/HID/Src/usbh_hid.c **** 
 729              		.loc 1 619 1 is_stmt 0 view .LVU215
 730 0000 10B5     		push	{r4, lr}
 731              	.LCFI15:
 732              		.cfi_def_cfa_offset 8
 733              		.cfi_offset 4, -8
 734              		.cfi_offset 14, -4
 735 0002 9DF80840 		ldrb	r4, [sp, #8]	@ zero_extendqisi2
 621:Middlewares/ST/STM32_USB_Host_Library/Class/HID/Src/usbh_hid.c ****                                          USB_REQ_TYPE_CLASS;
 736              		.loc 1 621 3 is_stmt 1 view .LVU216
 621:Middlewares/ST/STM32_USB_Host_Library/Class/HID/Src/usbh_hid.c ****                                          USB_REQ_TYPE_CLASS;
 737              		.loc 1 621 40 is_stmt 0 view .LVU217
 738 0006 4FF0210E 		mov	lr, #33
 739 000a 80F810E0 		strb	lr, [r0, #16]
 625:Middlewares/ST/STM32_USB_Host_Library/Class/HID/Src/usbh_hid.c ****   phost->Control.setup.b.wValue.w = (uint16_t)(((uint32_t)reportType << 8U) | (uint32_t)reportId);
 740              		.loc 1 625 3 is_stmt 1 view .LVU218
 625:Middlewares/ST/STM32_USB_Host_Library/Class/HID/Src/usbh_hid.c ****   phost->Control.setup.b.wValue.w = (uint16_t)(((uint32_t)reportType << 8U) | (uint32_t)reportId);
 741              		.loc 1 625 35 is_stmt 0 view .LVU219
 742 000e 4FF0090E 		mov	lr, #9
 743 0012 80F811E0 		strb	lr, [r0, #17]
 626:Middlewares/ST/STM32_USB_Host_Library/Class/HID/Src/usbh_hid.c **** 
 744              		.loc 1 626 3 is_stmt 1 view .LVU220
 626:Middlewares/ST/STM32_USB_Host_Library/Class/HID/Src/usbh_hid.c **** 
 745              		.loc 1 626 37 is_stmt 0 view .LVU221
 746 0016 42EA012E 		orr	lr, r2, r1, lsl #8
 626:Middlewares/ST/STM32_USB_Host_Library/Class/HID/Src/usbh_hid.c **** 
 747              		.loc 1 626 35 view .LVU222
 748 001a A0F812E0 		strh	lr, [r0, #18]	@ movhi
 628:Middlewares/ST/STM32_USB_Host_Library/Class/HID/Src/usbh_hid.c ****   phost->Control.setup.b.wLength.w = reportLen;
 749              		.loc 1 628 3 is_stmt 1 view .LVU223
 628:Middlewares/ST/STM32_USB_Host_Library/Class/HID/Src/usbh_hid.c ****   phost->Control.setup.b.wLength.w = reportLen;
 750              		.loc 1 628 35 is_stmt 0 view .LVU224
 751 001e 0022     		movs	r2, #0
 752              	.LVL58:
 628:Middlewares/ST/STM32_USB_Host_Library/Class/HID/Src/usbh_hid.c ****   phost->Control.setup.b.wLength.w = reportLen;
 753              		.loc 1 628 35 view .LVU225
 754 0020 8282     		strh	r2, [r0, #20]	@ movhi
 629:Middlewares/ST/STM32_USB_Host_Library/Class/HID/Src/usbh_hid.c **** 
 755              		.loc 1 629 3 is_stmt 1 view .LVU226
 629:Middlewares/ST/STM32_USB_Host_Library/Class/HID/Src/usbh_hid.c **** 
 756              		.loc 1 629 36 is_stmt 0 view .LVU227
 757 0022 C482     		strh	r4, [r0, #22]	@ movhi
 631:Middlewares/ST/STM32_USB_Host_Library/Class/HID/Src/usbh_hid.c **** }
ARM GAS  /tmp/ccKBEJwZ.s 			page 30


 758              		.loc 1 631 3 is_stmt 1 view .LVU228
 631:Middlewares/ST/STM32_USB_Host_Library/Class/HID/Src/usbh_hid.c **** }
 759              		.loc 1 631 10 is_stmt 0 view .LVU229
 760 0024 2246     		mov	r2, r4
 761 0026 1946     		mov	r1, r3
 762              	.LVL59:
 631:Middlewares/ST/STM32_USB_Host_Library/Class/HID/Src/usbh_hid.c **** }
 763              		.loc 1 631 10 view .LVU230
 764 0028 FFF7FEFF 		bl	USBH_CtlReq
 765              	.LVL60:
 632:Middlewares/ST/STM32_USB_Host_Library/Class/HID/Src/usbh_hid.c **** 
 766              		.loc 1 632 1 view .LVU231
 767 002c 10BD     		pop	{r4, pc}
 632:Middlewares/ST/STM32_USB_Host_Library/Class/HID/Src/usbh_hid.c **** 
 768              		.loc 1 632 1 view .LVU232
 769              		.cfi_endproc
 770              	.LFE339:
 772              		.section	.text.USBH_HID_GetReport,"ax",%progbits
 773              		.align	1
 774              		.global	USBH_HID_GetReport
 775              		.syntax unified
 776              		.thumb
 777              		.thumb_func
 779              	USBH_HID_GetReport:
 780              	.LVL61:
 781              	.LFB340:
 650:Middlewares/ST/STM32_USB_Host_Library/Class/HID/Src/usbh_hid.c **** 
 782              		.loc 1 650 1 is_stmt 1 view -0
 783              		.cfi_startproc
 784              		@ args = 4, pretend = 0, frame = 0
 785              		@ frame_needed = 0, uses_anonymous_args = 0
 650:Middlewares/ST/STM32_USB_Host_Library/Class/HID/Src/usbh_hid.c **** 
 786              		.loc 1 650 1 is_stmt 0 view .LVU234
 787 0000 10B5     		push	{r4, lr}
 788              	.LCFI16:
 789              		.cfi_def_cfa_offset 8
 790              		.cfi_offset 4, -8
 791              		.cfi_offset 14, -4
 792 0002 9DF80840 		ldrb	r4, [sp, #8]	@ zero_extendqisi2
 652:Middlewares/ST/STM32_USB_Host_Library/Class/HID/Src/usbh_hid.c ****                                          USB_REQ_TYPE_CLASS;
 793              		.loc 1 652 3 is_stmt 1 view .LVU235
 652:Middlewares/ST/STM32_USB_Host_Library/Class/HID/Src/usbh_hid.c ****                                          USB_REQ_TYPE_CLASS;
 794              		.loc 1 652 40 is_stmt 0 view .LVU236
 795 0006 4FF0A10E 		mov	lr, #161
 796 000a 80F810E0 		strb	lr, [r0, #16]
 656:Middlewares/ST/STM32_USB_Host_Library/Class/HID/Src/usbh_hid.c ****   phost->Control.setup.b.wValue.w = (uint16_t)(((uint32_t)reportType << 8U) | (uint32_t)reportId);
 797              		.loc 1 656 3 is_stmt 1 view .LVU237
 656:Middlewares/ST/STM32_USB_Host_Library/Class/HID/Src/usbh_hid.c ****   phost->Control.setup.b.wValue.w = (uint16_t)(((uint32_t)reportType << 8U) | (uint32_t)reportId);
 798              		.loc 1 656 35 is_stmt 0 view .LVU238
 799 000e 4FF0010E 		mov	lr, #1
 800 0012 80F811E0 		strb	lr, [r0, #17]
 657:Middlewares/ST/STM32_USB_Host_Library/Class/HID/Src/usbh_hid.c **** 
 801              		.loc 1 657 3 is_stmt 1 view .LVU239
 657:Middlewares/ST/STM32_USB_Host_Library/Class/HID/Src/usbh_hid.c **** 
 802              		.loc 1 657 37 is_stmt 0 view .LVU240
 803 0016 42EA012E 		orr	lr, r2, r1, lsl #8
 657:Middlewares/ST/STM32_USB_Host_Library/Class/HID/Src/usbh_hid.c **** 
ARM GAS  /tmp/ccKBEJwZ.s 			page 31


 804              		.loc 1 657 35 view .LVU241
 805 001a A0F812E0 		strh	lr, [r0, #18]	@ movhi
 659:Middlewares/ST/STM32_USB_Host_Library/Class/HID/Src/usbh_hid.c ****   phost->Control.setup.b.wLength.w = reportLen;
 806              		.loc 1 659 3 is_stmt 1 view .LVU242
 659:Middlewares/ST/STM32_USB_Host_Library/Class/HID/Src/usbh_hid.c ****   phost->Control.setup.b.wLength.w = reportLen;
 807              		.loc 1 659 35 is_stmt 0 view .LVU243
 808 001e 0022     		movs	r2, #0
 809              	.LVL62:
 659:Middlewares/ST/STM32_USB_Host_Library/Class/HID/Src/usbh_hid.c ****   phost->Control.setup.b.wLength.w = reportLen;
 810              		.loc 1 659 35 view .LVU244
 811 0020 8282     		strh	r2, [r0, #20]	@ movhi
 660:Middlewares/ST/STM32_USB_Host_Library/Class/HID/Src/usbh_hid.c **** 
 812              		.loc 1 660 3 is_stmt 1 view .LVU245
 660:Middlewares/ST/STM32_USB_Host_Library/Class/HID/Src/usbh_hid.c **** 
 813              		.loc 1 660 36 is_stmt 0 view .LVU246
 814 0022 C482     		strh	r4, [r0, #22]	@ movhi
 662:Middlewares/ST/STM32_USB_Host_Library/Class/HID/Src/usbh_hid.c **** }
 815              		.loc 1 662 3 is_stmt 1 view .LVU247
 662:Middlewares/ST/STM32_USB_Host_Library/Class/HID/Src/usbh_hid.c **** }
 816              		.loc 1 662 10 is_stmt 0 view .LVU248
 817 0024 2246     		mov	r2, r4
 818 0026 1946     		mov	r1, r3
 819              	.LVL63:
 662:Middlewares/ST/STM32_USB_Host_Library/Class/HID/Src/usbh_hid.c **** }
 820              		.loc 1 662 10 view .LVU249
 821 0028 FFF7FEFF 		bl	USBH_CtlReq
 822              	.LVL64:
 663:Middlewares/ST/STM32_USB_Host_Library/Class/HID/Src/usbh_hid.c **** 
 823              		.loc 1 663 1 view .LVU250
 824 002c 10BD     		pop	{r4, pc}
 663:Middlewares/ST/STM32_USB_Host_Library/Class/HID/Src/usbh_hid.c **** 
 825              		.loc 1 663 1 view .LVU251
 826              		.cfi_endproc
 827              	.LFE340:
 829              		.section	.text.USBH_HID_SetProtocol,"ax",%progbits
 830              		.align	1
 831              		.global	USBH_HID_SetProtocol
 832              		.syntax unified
 833              		.thumb
 834              		.thumb_func
 836              	USBH_HID_SetProtocol:
 837              	.LVL65:
 838              	.LFB341:
 674:Middlewares/ST/STM32_USB_Host_Library/Class/HID/Src/usbh_hid.c ****   phost->Control.setup.b.bmRequestType = USB_H2D | USB_REQ_RECIPIENT_INTERFACE
 839              		.loc 1 674 1 is_stmt 1 view -0
 840              		.cfi_startproc
 841              		@ args = 0, pretend = 0, frame = 0
 842              		@ frame_needed = 0, uses_anonymous_args = 0
 674:Middlewares/ST/STM32_USB_Host_Library/Class/HID/Src/usbh_hid.c ****   phost->Control.setup.b.bmRequestType = USB_H2D | USB_REQ_RECIPIENT_INTERFACE
 843              		.loc 1 674 1 is_stmt 0 view .LVU253
 844 0000 08B5     		push	{r3, lr}
 845              	.LCFI17:
 846              		.cfi_def_cfa_offset 8
 847              		.cfi_offset 3, -8
 848              		.cfi_offset 14, -4
 675:Middlewares/ST/STM32_USB_Host_Library/Class/HID/Src/usbh_hid.c ****                                          | USB_REQ_TYPE_CLASS;
 849              		.loc 1 675 3 is_stmt 1 view .LVU254
ARM GAS  /tmp/ccKBEJwZ.s 			page 32


 675:Middlewares/ST/STM32_USB_Host_Library/Class/HID/Src/usbh_hid.c ****                                          | USB_REQ_TYPE_CLASS;
 850              		.loc 1 675 40 is_stmt 0 view .LVU255
 851 0002 2123     		movs	r3, #33
 852 0004 0374     		strb	r3, [r0, #16]
 678:Middlewares/ST/STM32_USB_Host_Library/Class/HID/Src/usbh_hid.c ****   if (protocol)
 853              		.loc 1 678 3 is_stmt 1 view .LVU256
 678:Middlewares/ST/STM32_USB_Host_Library/Class/HID/Src/usbh_hid.c ****   if (protocol)
 854              		.loc 1 678 35 is_stmt 0 view .LVU257
 855 0006 0B23     		movs	r3, #11
 856 0008 4374     		strb	r3, [r0, #17]
 679:Middlewares/ST/STM32_USB_Host_Library/Class/HID/Src/usbh_hid.c ****   {
 857              		.loc 1 679 3 is_stmt 1 view .LVU258
 679:Middlewares/ST/STM32_USB_Host_Library/Class/HID/Src/usbh_hid.c ****   {
 858              		.loc 1 679 6 is_stmt 0 view .LVU259
 859 000a 41B1     		cbz	r1, .L45
 681:Middlewares/ST/STM32_USB_Host_Library/Class/HID/Src/usbh_hid.c ****   }
 860              		.loc 1 681 5 is_stmt 1 view .LVU260
 681:Middlewares/ST/STM32_USB_Host_Library/Class/HID/Src/usbh_hid.c ****   }
 861              		.loc 1 681 37 is_stmt 0 view .LVU261
 862 000c 0023     		movs	r3, #0
 863 000e 4382     		strh	r3, [r0, #18]	@ movhi
 864              	.L46:
 688:Middlewares/ST/STM32_USB_Host_Library/Class/HID/Src/usbh_hid.c ****   phost->Control.setup.b.wLength.w = 0U;
 865              		.loc 1 688 3 is_stmt 1 view .LVU262
 688:Middlewares/ST/STM32_USB_Host_Library/Class/HID/Src/usbh_hid.c ****   phost->Control.setup.b.wLength.w = 0U;
 866              		.loc 1 688 35 is_stmt 0 view .LVU263
 867 0010 0021     		movs	r1, #0
 868              	.LVL66:
 688:Middlewares/ST/STM32_USB_Host_Library/Class/HID/Src/usbh_hid.c ****   phost->Control.setup.b.wLength.w = 0U;
 869              		.loc 1 688 35 view .LVU264
 870 0012 8182     		strh	r1, [r0, #20]	@ movhi
 689:Middlewares/ST/STM32_USB_Host_Library/Class/HID/Src/usbh_hid.c **** 
 871              		.loc 1 689 3 is_stmt 1 view .LVU265
 689:Middlewares/ST/STM32_USB_Host_Library/Class/HID/Src/usbh_hid.c **** 
 872              		.loc 1 689 36 is_stmt 0 view .LVU266
 873 0014 C182     		strh	r1, [r0, #22]	@ movhi
 691:Middlewares/ST/STM32_USB_Host_Library/Class/HID/Src/usbh_hid.c **** 
 874              		.loc 1 691 3 is_stmt 1 view .LVU267
 691:Middlewares/ST/STM32_USB_Host_Library/Class/HID/Src/usbh_hid.c **** 
 875              		.loc 1 691 10 is_stmt 0 view .LVU268
 876 0016 0A46     		mov	r2, r1
 877 0018 FFF7FEFF 		bl	USBH_CtlReq
 878              	.LVL67:
 693:Middlewares/ST/STM32_USB_Host_Library/Class/HID/Src/usbh_hid.c **** 
 879              		.loc 1 693 1 view .LVU269
 880 001c 08BD     		pop	{r3, pc}
 881              	.LVL68:
 882              	.L45:
 685:Middlewares/ST/STM32_USB_Host_Library/Class/HID/Src/usbh_hid.c ****   }
 883              		.loc 1 685 5 is_stmt 1 view .LVU270
 685:Middlewares/ST/STM32_USB_Host_Library/Class/HID/Src/usbh_hid.c ****   }
 884              		.loc 1 685 37 is_stmt 0 view .LVU271
 885 001e 0123     		movs	r3, #1
 886 0020 4382     		strh	r3, [r0, #18]	@ movhi
 887 0022 F5E7     		b	.L46
 888              		.cfi_endproc
 889              	.LFE341:
ARM GAS  /tmp/ccKBEJwZ.s 			page 33


 891              		.section	.text.USBH_HID_ClassRequest,"ax",%progbits
 892              		.align	1
 893              		.syntax unified
 894              		.thumb
 895              		.thumb_func
 897              	USBH_HID_ClassRequest:
 898              	.LVL69:
 899              	.LFB333:
 280:Middlewares/ST/STM32_USB_Host_Library/Class/HID/Src/usbh_hid.c **** 
 900              		.loc 1 280 1 is_stmt 1 view -0
 901              		.cfi_startproc
 902              		@ args = 0, pretend = 0, frame = 0
 903              		@ frame_needed = 0, uses_anonymous_args = 0
 280:Middlewares/ST/STM32_USB_Host_Library/Class/HID/Src/usbh_hid.c **** 
 904              		.loc 1 280 1 is_stmt 0 view .LVU273
 905 0000 70B5     		push	{r4, r5, r6, lr}
 906              	.LCFI18:
 907              		.cfi_def_cfa_offset 16
 908              		.cfi_offset 4, -16
 909              		.cfi_offset 5, -12
 910              		.cfi_offset 6, -8
 911              		.cfi_offset 14, -4
 912 0002 0546     		mov	r5, r0
 282:Middlewares/ST/STM32_USB_Host_Library/Class/HID/Src/usbh_hid.c ****   USBH_StatusTypeDef classReqStatus = USBH_BUSY;
 913              		.loc 1 282 3 is_stmt 1 view .LVU274
 914              	.LVL70:
 283:Middlewares/ST/STM32_USB_Host_Library/Class/HID/Src/usbh_hid.c ****   HID_HandleTypeDef *HID_Handle = (HID_HandleTypeDef *) phost->pActiveClass->pData;
 915              		.loc 1 283 3 view .LVU275
 284:Middlewares/ST/STM32_USB_Host_Library/Class/HID/Src/usbh_hid.c **** 
 916              		.loc 1 284 3 view .LVU276
 284:Middlewares/ST/STM32_USB_Host_Library/Class/HID/Src/usbh_hid.c **** 
 917              		.loc 1 284 62 is_stmt 0 view .LVU277
 918 0004 D0F87C33 		ldr	r3, [r0, #892]
 284:Middlewares/ST/STM32_USB_Host_Library/Class/HID/Src/usbh_hid.c **** 
 919              		.loc 1 284 22 view .LVU278
 920 0008 DE69     		ldr	r6, [r3, #28]
 921              	.LVL71:
 287:Middlewares/ST/STM32_USB_Host_Library/Class/HID/Src/usbh_hid.c ****   {
 922              		.loc 1 287 3 is_stmt 1 view .LVU279
 287:Middlewares/ST/STM32_USB_Host_Library/Class/HID/Src/usbh_hid.c ****   {
 923              		.loc 1 287 21 is_stmt 0 view .LVU280
 924 000a 7479     		ldrb	r4, [r6, #5]	@ zero_extendqisi2
 287:Middlewares/ST/STM32_USB_Host_Library/Class/HID/Src/usbh_hid.c ****   {
 925              		.loc 1 287 3 view .LVU281
 926 000c 052C     		cmp	r4, #5
 927 000e 3DD8     		bhi	.L58
 928 0010 DFE804F0 		tbb	[pc, r4]
 929              	.L51:
 930 0014 03       		.byte	(.L53-.L51)/2
 931 0015 3C       		.byte	(.L58-.L51)/2
 932 0016 0E       		.byte	(.L54-.L51)/2
 933 0017 03       		.byte	(.L53-.L51)/2
 934 0018 1A       		.byte	(.L52-.L51)/2
 935 0019 2B       		.byte	(.L50-.L51)/2
 936              		.p2align 1
 937              	.L53:
 292:Middlewares/ST/STM32_USB_Host_Library/Class/HID/Src/usbh_hid.c **** 
ARM GAS  /tmp/ccKBEJwZ.s 			page 34


 938              		.loc 1 292 5 is_stmt 1 view .LVU282
 939 001a 00F11C01 		add	r1, r0, #28
 940 001e 06F12600 		add	r0, r6, #38
 941              	.LVL72:
 292:Middlewares/ST/STM32_USB_Host_Library/Class/HID/Src/usbh_hid.c **** 
 942              		.loc 1 292 5 is_stmt 0 view .LVU283
 943 0022 FFF7FEFF 		bl	USBH_HID_ParseHIDDesc
 944              	.LVL73:
 294:Middlewares/ST/STM32_USB_Host_Library/Class/HID/Src/usbh_hid.c **** 
 945              		.loc 1 294 5 is_stmt 1 view .LVU284
 294:Middlewares/ST/STM32_USB_Host_Library/Class/HID/Src/usbh_hid.c **** 
 946              		.loc 1 294 27 is_stmt 0 view .LVU285
 947 0026 0223     		movs	r3, #2
 948 0028 7371     		strb	r3, [r6, #5]
 296:Middlewares/ST/STM32_USB_Host_Library/Class/HID/Src/usbh_hid.c ****   case HID_REQ_GET_REPORT_DESC:
 949              		.loc 1 296 5 is_stmt 1 view .LVU286
 282:Middlewares/ST/STM32_USB_Host_Library/Class/HID/Src/usbh_hid.c ****   USBH_StatusTypeDef classReqStatus = USBH_BUSY;
 950              		.loc 1 282 22 is_stmt 0 view .LVU287
 951 002a 0124     		movs	r4, #1
 952              	.LVL74:
 953              	.L49:
 363:Middlewares/ST/STM32_USB_Host_Library/Class/HID/Src/usbh_hid.c **** }
 954              		.loc 1 363 3 is_stmt 1 view .LVU288
 364:Middlewares/ST/STM32_USB_Host_Library/Class/HID/Src/usbh_hid.c **** 
 955              		.loc 1 364 1 is_stmt 0 view .LVU289
 956 002c 2046     		mov	r0, r4
 957 002e 70BD     		pop	{r4, r5, r6, pc}
 958              	.LVL75:
 959              	.L54:
 300:Middlewares/ST/STM32_USB_Host_Library/Class/HID/Src/usbh_hid.c ****     if (classReqStatus == USBH_OK)
 960              		.loc 1 300 5 is_stmt 1 view .LVU290
 300:Middlewares/ST/STM32_USB_Host_Library/Class/HID/Src/usbh_hid.c ****     if (classReqStatus == USBH_OK)
 961              		.loc 1 300 22 is_stmt 0 view .LVU291
 962 0030 F18D     		ldrh	r1, [r6, #46]
 963 0032 FFF7FEFF 		bl	USBH_HID_GetHIDReportDescriptor
 964              	.LVL76:
 301:Middlewares/ST/STM32_USB_Host_Library/Class/HID/Src/usbh_hid.c ****     {
 965              		.loc 1 301 5 is_stmt 1 view .LVU292
 301:Middlewares/ST/STM32_USB_Host_Library/Class/HID/Src/usbh_hid.c ****     {
 966              		.loc 1 301 8 is_stmt 0 view .LVU293
 967 0036 18B9     		cbnz	r0, .L55
 304:Middlewares/ST/STM32_USB_Host_Library/Class/HID/Src/usbh_hid.c ****     }
 968              		.loc 1 304 7 is_stmt 1 view .LVU294
 304:Middlewares/ST/STM32_USB_Host_Library/Class/HID/Src/usbh_hid.c ****     }
 969              		.loc 1 304 29 is_stmt 0 view .LVU295
 970 0038 0423     		movs	r3, #4
 971 003a 7371     		strb	r3, [r6, #5]
 282:Middlewares/ST/STM32_USB_Host_Library/Class/HID/Src/usbh_hid.c ****   USBH_StatusTypeDef classReqStatus = USBH_BUSY;
 972              		.loc 1 282 22 view .LVU296
 973 003c 0124     		movs	r4, #1
 974 003e F5E7     		b	.L49
 975              	.L55:
 306:Middlewares/ST/STM32_USB_Host_Library/Class/HID/Src/usbh_hid.c ****     {
 976              		.loc 1 306 10 is_stmt 1 view .LVU297
 306:Middlewares/ST/STM32_USB_Host_Library/Class/HID/Src/usbh_hid.c ****     {
 977              		.loc 1 306 13 is_stmt 0 view .LVU298
 978 0040 0328     		cmp	r0, #3
ARM GAS  /tmp/ccKBEJwZ.s 			page 35


 979 0042 F3D0     		beq	.L49
 282:Middlewares/ST/STM32_USB_Host_Library/Class/HID/Src/usbh_hid.c ****   USBH_StatusTypeDef classReqStatus = USBH_BUSY;
 980              		.loc 1 282 22 view .LVU299
 981 0044 0124     		movs	r4, #1
 982 0046 F1E7     		b	.L49
 983              	.LVL77:
 984              	.L52:
 320:Middlewares/ST/STM32_USB_Host_Library/Class/HID/Src/usbh_hid.c **** 
 985              		.loc 1 320 5 is_stmt 1 view .LVU300
 320:Middlewares/ST/STM32_USB_Host_Library/Class/HID/Src/usbh_hid.c **** 
 986              		.loc 1 320 22 is_stmt 0 view .LVU301
 987 0048 0022     		movs	r2, #0
 988 004a 1146     		mov	r1, r2
 989 004c FFF7FEFF 		bl	USBH_HID_SetIdle
 990              	.LVL78:
 323:Middlewares/ST/STM32_USB_Host_Library/Class/HID/Src/usbh_hid.c ****     {
 991              		.loc 1 323 5 is_stmt 1 view .LVU302
 323:Middlewares/ST/STM32_USB_Host_Library/Class/HID/Src/usbh_hid.c ****     {
 992              		.loc 1 323 8 is_stmt 0 view .LVU303
 993 0050 18B9     		cbnz	r0, .L56
 325:Middlewares/ST/STM32_USB_Host_Library/Class/HID/Src/usbh_hid.c ****     }
 994              		.loc 1 325 7 is_stmt 1 view .LVU304
 325:Middlewares/ST/STM32_USB_Host_Library/Class/HID/Src/usbh_hid.c ****     }
 995              		.loc 1 325 29 is_stmt 0 view .LVU305
 996 0052 0523     		movs	r3, #5
 997 0054 7371     		strb	r3, [r6, #5]
 282:Middlewares/ST/STM32_USB_Host_Library/Class/HID/Src/usbh_hid.c ****   USBH_StatusTypeDef classReqStatus = USBH_BUSY;
 998              		.loc 1 282 22 view .LVU306
 999 0056 0124     		movs	r4, #1
 1000 0058 E8E7     		b	.L49
 1001              	.L56:
 329:Middlewares/ST/STM32_USB_Host_Library/Class/HID/Src/usbh_hid.c ****       {
 1002              		.loc 1 329 7 is_stmt 1 view .LVU307
 329:Middlewares/ST/STM32_USB_Host_Library/Class/HID/Src/usbh_hid.c ****       {
 1003              		.loc 1 329 10 is_stmt 0 view .LVU308
 1004 005a 0328     		cmp	r0, #3
 1005 005c 01D0     		beq	.L62
 282:Middlewares/ST/STM32_USB_Host_Library/Class/HID/Src/usbh_hid.c ****   USBH_StatusTypeDef classReqStatus = USBH_BUSY;
 1006              		.loc 1 282 22 view .LVU309
 1007 005e 0124     		movs	r4, #1
 1008 0060 E4E7     		b	.L49
 1009              	.L62:
 331:Middlewares/ST/STM32_USB_Host_Library/Class/HID/Src/usbh_hid.c ****       }
 1010              		.loc 1 331 9 is_stmt 1 view .LVU310
 331:Middlewares/ST/STM32_USB_Host_Library/Class/HID/Src/usbh_hid.c ****       }
 1011              		.loc 1 331 31 is_stmt 0 view .LVU311
 1012 0062 0523     		movs	r3, #5
 1013 0064 7371     		strb	r3, [r6, #5]
 282:Middlewares/ST/STM32_USB_Host_Library/Class/HID/Src/usbh_hid.c ****   USBH_StatusTypeDef classReqStatus = USBH_BUSY;
 1014              		.loc 1 282 22 view .LVU312
 1015 0066 0124     		movs	r4, #1
 1016 0068 E0E7     		b	.L49
 1017              	.LVL79:
 1018              	.L50:
 338:Middlewares/ST/STM32_USB_Host_Library/Class/HID/Src/usbh_hid.c ****     if (classReqStatus == USBH_OK)
 1019              		.loc 1 338 5 is_stmt 1 view .LVU313
 338:Middlewares/ST/STM32_USB_Host_Library/Class/HID/Src/usbh_hid.c ****     if (classReqStatus == USBH_OK)
ARM GAS  /tmp/ccKBEJwZ.s 			page 36


 1020              		.loc 1 338 22 is_stmt 0 view .LVU314
 1021 006a 0021     		movs	r1, #0
 1022 006c FFF7FEFF 		bl	USBH_HID_SetProtocol
 1023              	.LVL80:
 339:Middlewares/ST/STM32_USB_Host_Library/Class/HID/Src/usbh_hid.c ****     {
 1024              		.loc 1 339 5 is_stmt 1 view .LVU315
 339:Middlewares/ST/STM32_USB_Host_Library/Class/HID/Src/usbh_hid.c ****     {
 1025              		.loc 1 339 8 is_stmt 0 view .LVU316
 1026 0070 0446     		mov	r4, r0
 1027 0072 38B9     		cbnz	r0, .L57
 341:Middlewares/ST/STM32_USB_Host_Library/Class/HID/Src/usbh_hid.c **** 
 1028              		.loc 1 341 7 is_stmt 1 view .LVU317
 341:Middlewares/ST/STM32_USB_Host_Library/Class/HID/Src/usbh_hid.c **** 
 1029              		.loc 1 341 29 is_stmt 0 view .LVU318
 1030 0074 0123     		movs	r3, #1
 1031 0076 7371     		strb	r3, [r6, #5]
 344:Middlewares/ST/STM32_USB_Host_Library/Class/HID/Src/usbh_hid.c ****       status = USBH_OK;
 1032              		.loc 1 344 7 is_stmt 1 view .LVU319
 344:Middlewares/ST/STM32_USB_Host_Library/Class/HID/Src/usbh_hid.c ****       status = USBH_OK;
 1033              		.loc 1 344 12 is_stmt 0 view .LVU320
 1034 0078 D5F8D433 		ldr	r3, [r5, #980]
 344:Middlewares/ST/STM32_USB_Host_Library/Class/HID/Src/usbh_hid.c ****       status = USBH_OK;
 1035              		.loc 1 344 7 view .LVU321
 1036 007c 0221     		movs	r1, #2
 1037 007e 2846     		mov	r0, r5
 1038              	.LVL81:
 344:Middlewares/ST/STM32_USB_Host_Library/Class/HID/Src/usbh_hid.c ****       status = USBH_OK;
 1039              		.loc 1 344 7 view .LVU322
 1040 0080 9847     		blx	r3
 1041              	.LVL82:
 345:Middlewares/ST/STM32_USB_Host_Library/Class/HID/Src/usbh_hid.c ****     }
 1042              		.loc 1 345 7 is_stmt 1 view .LVU323
 345:Middlewares/ST/STM32_USB_Host_Library/Class/HID/Src/usbh_hid.c ****     }
 1043              		.loc 1 345 7 is_stmt 0 view .LVU324
 1044 0082 D3E7     		b	.L49
 1045              	.LVL83:
 1046              	.L57:
 347:Middlewares/ST/STM32_USB_Host_Library/Class/HID/Src/usbh_hid.c ****     {
 1047              		.loc 1 347 10 is_stmt 1 view .LVU325
 347:Middlewares/ST/STM32_USB_Host_Library/Class/HID/Src/usbh_hid.c ****     {
 1048              		.loc 1 347 13 is_stmt 0 view .LVU326
 1049 0084 0328     		cmp	r0, #3
 1050 0086 03D0     		beq	.L60
 282:Middlewares/ST/STM32_USB_Host_Library/Class/HID/Src/usbh_hid.c ****   USBH_StatusTypeDef classReqStatus = USBH_BUSY;
 1051              		.loc 1 282 22 view .LVU327
 1052 0088 0124     		movs	r4, #1
 1053 008a CFE7     		b	.L49
 1054              	.LVL84:
 1055              	.L58:
 287:Middlewares/ST/STM32_USB_Host_Library/Class/HID/Src/usbh_hid.c ****   {
 1056              		.loc 1 287 3 view .LVU328
 1057 008c 0124     		movs	r4, #1
 1058 008e CDE7     		b	.L49
 1059              	.LVL85:
 1060              	.L60:
 350:Middlewares/ST/STM32_USB_Host_Library/Class/HID/Src/usbh_hid.c ****     }
 1061              		.loc 1 350 14 view .LVU329
ARM GAS  /tmp/ccKBEJwZ.s 			page 37


 1062 0090 0224     		movs	r4, #2
 1063 0092 CBE7     		b	.L49
 1064              		.cfi_endproc
 1065              	.LFE333:
 1067              		.section	.text.USBH_HID_GetDeviceType,"ax",%progbits
 1068              		.align	1
 1069              		.global	USBH_HID_GetDeviceType
 1070              		.syntax unified
 1071              		.thumb
 1072              		.thumb_func
 1074              	USBH_HID_GetDeviceType:
 1075              	.LVL86:
 1076              	.LFB343:
 732:Middlewares/ST/STM32_USB_Host_Library/Class/HID/Src/usbh_hid.c **** 
 733:Middlewares/ST/STM32_USB_Host_Library/Class/HID/Src/usbh_hid.c **** /**
 734:Middlewares/ST/STM32_USB_Host_Library/Class/HID/Src/usbh_hid.c ****   * @brief  USBH_HID_GetDeviceType
 735:Middlewares/ST/STM32_USB_Host_Library/Class/HID/Src/usbh_hid.c ****   *         Return Device function.
 736:Middlewares/ST/STM32_USB_Host_Library/Class/HID/Src/usbh_hid.c ****   * @param  phost: Host handle
 737:Middlewares/ST/STM32_USB_Host_Library/Class/HID/Src/usbh_hid.c ****   * @retval HID function: HID_MOUSE / HID_KEYBOARD
 738:Middlewares/ST/STM32_USB_Host_Library/Class/HID/Src/usbh_hid.c ****   */
 739:Middlewares/ST/STM32_USB_Host_Library/Class/HID/Src/usbh_hid.c **** HID_TypeTypeDef USBH_HID_GetDeviceType(USBH_HandleTypeDef *phost)
 740:Middlewares/ST/STM32_USB_Host_Library/Class/HID/Src/usbh_hid.c **** {
 1077              		.loc 1 740 1 is_stmt 1 view -0
 1078              		.cfi_startproc
 1079              		@ args = 0, pretend = 0, frame = 0
 1080              		@ frame_needed = 0, uses_anonymous_args = 0
 1081              		@ link register save eliminated.
 741:Middlewares/ST/STM32_USB_Host_Library/Class/HID/Src/usbh_hid.c ****   HID_TypeTypeDef   type = HID_UNKNOWN;
 1082              		.loc 1 741 3 view .LVU331
 742:Middlewares/ST/STM32_USB_Host_Library/Class/HID/Src/usbh_hid.c ****   uint8_t InterfaceProtocol;
 1083              		.loc 1 742 3 view .LVU332
 743:Middlewares/ST/STM32_USB_Host_Library/Class/HID/Src/usbh_hid.c **** 
 744:Middlewares/ST/STM32_USB_Host_Library/Class/HID/Src/usbh_hid.c ****   if (phost->gState == HOST_CLASS)
 1084              		.loc 1 744 3 view .LVU333
 1085              		.loc 1 744 12 is_stmt 0 view .LVU334
 1086 0000 0378     		ldrb	r3, [r0]	@ zero_extendqisi2
 1087 0002 DBB2     		uxtb	r3, r3
 1088              		.loc 1 744 6 view .LVU335
 1089 0004 0B2B     		cmp	r3, #11
 1090 0006 01D0     		beq	.L68
 741:Middlewares/ST/STM32_USB_Host_Library/Class/HID/Src/usbh_hid.c ****   uint8_t InterfaceProtocol;
 1091              		.loc 1 741 21 view .LVU336
 1092 0008 FF20     		movs	r0, #255
 1093              	.LVL87:
 741:Middlewares/ST/STM32_USB_Host_Library/Class/HID/Src/usbh_hid.c ****   uint8_t InterfaceProtocol;
 1094              		.loc 1 741 21 view .LVU337
 1095 000a 7047     		bx	lr
 1096              	.LVL88:
 1097              	.L68:
 745:Middlewares/ST/STM32_USB_Host_Library/Class/HID/Src/usbh_hid.c ****   {
 746:Middlewares/ST/STM32_USB_Host_Library/Class/HID/Src/usbh_hid.c ****     InterfaceProtocol = phost->device.CfgDesc.Itf_Desc[phost->device.current_interface].bInterfaceP
 1098              		.loc 1 746 5 is_stmt 1 view .LVU338
 1099              		.loc 1 746 69 is_stmt 0 view .LVU339
 1100 000c 90F82433 		ldrb	r3, [r0, #804]	@ zero_extendqisi2
 1101              		.loc 1 746 23 view .LVU340
 1102 0010 1A22     		movs	r2, #26
 1103 0012 02FB0300 		mla	r0, r2, r3, r0
ARM GAS  /tmp/ccKBEJwZ.s 			page 38


 1104              	.LVL89:
 1105              		.loc 1 746 23 view .LVU341
 1106 0016 90F84933 		ldrb	r3, [r0, #841]	@ zero_extendqisi2
 1107              	.LVL90:
 747:Middlewares/ST/STM32_USB_Host_Library/Class/HID/Src/usbh_hid.c ****     if (InterfaceProtocol == HID_KEYBRD_BOOT_CODE)
 1108              		.loc 1 747 5 is_stmt 1 view .LVU342
 1109              		.loc 1 747 8 is_stmt 0 view .LVU343
 1110 001a 012B     		cmp	r3, #1
 1111 001c 03D0     		beq	.L66
 748:Middlewares/ST/STM32_USB_Host_Library/Class/HID/Src/usbh_hid.c ****     {
 749:Middlewares/ST/STM32_USB_Host_Library/Class/HID/Src/usbh_hid.c ****       type = HID_KEYBOARD;
 750:Middlewares/ST/STM32_USB_Host_Library/Class/HID/Src/usbh_hid.c ****     }
 751:Middlewares/ST/STM32_USB_Host_Library/Class/HID/Src/usbh_hid.c ****     else
 752:Middlewares/ST/STM32_USB_Host_Library/Class/HID/Src/usbh_hid.c ****     {
 753:Middlewares/ST/STM32_USB_Host_Library/Class/HID/Src/usbh_hid.c ****       if (InterfaceProtocol == HID_MOUSE_BOOT_CODE)
 1112              		.loc 1 753 7 is_stmt 1 view .LVU344
 1113              		.loc 1 753 10 is_stmt 0 view .LVU345
 1114 001e 022B     		cmp	r3, #2
 1115 0020 03D0     		beq	.L67
 741:Middlewares/ST/STM32_USB_Host_Library/Class/HID/Src/usbh_hid.c ****   uint8_t InterfaceProtocol;
 1116              		.loc 1 741 21 view .LVU346
 1117 0022 FF20     		movs	r0, #255
 1118 0024 7047     		bx	lr
 1119              	.L66:
 749:Middlewares/ST/STM32_USB_Host_Library/Class/HID/Src/usbh_hid.c ****     }
 1120              		.loc 1 749 12 view .LVU347
 1121 0026 0220     		movs	r0, #2
 1122 0028 7047     		bx	lr
 1123              	.L67:
 754:Middlewares/ST/STM32_USB_Host_Library/Class/HID/Src/usbh_hid.c ****       {
 755:Middlewares/ST/STM32_USB_Host_Library/Class/HID/Src/usbh_hid.c ****         type = HID_MOUSE;
 1124              		.loc 1 755 14 view .LVU348
 1125 002a 0120     		movs	r0, #1
 1126              	.LVL91:
 756:Middlewares/ST/STM32_USB_Host_Library/Class/HID/Src/usbh_hid.c ****       }
 757:Middlewares/ST/STM32_USB_Host_Library/Class/HID/Src/usbh_hid.c ****     }
 758:Middlewares/ST/STM32_USB_Host_Library/Class/HID/Src/usbh_hid.c ****   }
 759:Middlewares/ST/STM32_USB_Host_Library/Class/HID/Src/usbh_hid.c ****   return type;
 1127              		.loc 1 759 3 is_stmt 1 view .LVU349
 760:Middlewares/ST/STM32_USB_Host_Library/Class/HID/Src/usbh_hid.c **** }
 1128              		.loc 1 760 1 is_stmt 0 view .LVU350
 1129 002c 7047     		bx	lr
 1130              		.cfi_endproc
 1131              	.LFE343:
 1133              		.section	.text.USBH_HID_GetPollInterval,"ax",%progbits
 1134              		.align	1
 1135              		.global	USBH_HID_GetPollInterval
 1136              		.syntax unified
 1137              		.thumb
 1138              		.thumb_func
 1140              	USBH_HID_GetPollInterval:
 1141              	.LVL92:
 1142              	.LFB344:
 761:Middlewares/ST/STM32_USB_Host_Library/Class/HID/Src/usbh_hid.c **** 
 762:Middlewares/ST/STM32_USB_Host_Library/Class/HID/Src/usbh_hid.c **** 
 763:Middlewares/ST/STM32_USB_Host_Library/Class/HID/Src/usbh_hid.c **** /**
 764:Middlewares/ST/STM32_USB_Host_Library/Class/HID/Src/usbh_hid.c ****   * @brief  USBH_HID_GetPollInterval
ARM GAS  /tmp/ccKBEJwZ.s 			page 39


 765:Middlewares/ST/STM32_USB_Host_Library/Class/HID/Src/usbh_hid.c ****   *         Return HID device poll time
 766:Middlewares/ST/STM32_USB_Host_Library/Class/HID/Src/usbh_hid.c ****   * @param  phost: Host handle
 767:Middlewares/ST/STM32_USB_Host_Library/Class/HID/Src/usbh_hid.c ****   * @retval poll time (ms)
 768:Middlewares/ST/STM32_USB_Host_Library/Class/HID/Src/usbh_hid.c ****   */
 769:Middlewares/ST/STM32_USB_Host_Library/Class/HID/Src/usbh_hid.c **** uint8_t USBH_HID_GetPollInterval(USBH_HandleTypeDef *phost)
 770:Middlewares/ST/STM32_USB_Host_Library/Class/HID/Src/usbh_hid.c **** {
 1143              		.loc 1 770 1 is_stmt 1 view -0
 1144              		.cfi_startproc
 1145              		@ args = 0, pretend = 0, frame = 0
 1146              		@ frame_needed = 0, uses_anonymous_args = 0
 1147              		@ link register save eliminated.
 771:Middlewares/ST/STM32_USB_Host_Library/Class/HID/Src/usbh_hid.c ****   HID_HandleTypeDef *HID_Handle = (HID_HandleTypeDef *) phost->pActiveClass->pData;
 1148              		.loc 1 771 3 view .LVU352
 1149              		.loc 1 771 62 is_stmt 0 view .LVU353
 1150 0000 D0F87C33 		ldr	r3, [r0, #892]
 1151              		.loc 1 771 22 view .LVU354
 1152 0004 DA69     		ldr	r2, [r3, #28]
 1153              	.LVL93:
 772:Middlewares/ST/STM32_USB_Host_Library/Class/HID/Src/usbh_hid.c **** 
 773:Middlewares/ST/STM32_USB_Host_Library/Class/HID/Src/usbh_hid.c ****   if ((phost->gState == HOST_CLASS_REQUEST) ||
 1154              		.loc 1 773 3 is_stmt 1 view .LVU355
 1155              		.loc 1 773 13 is_stmt 0 view .LVU356
 1156 0006 0378     		ldrb	r3, [r0]	@ zero_extendqisi2
 1157 0008 DBB2     		uxtb	r3, r3
 1158              		.loc 1 773 6 view .LVU357
 1159 000a 062B     		cmp	r3, #6
 1160 000c 11D0     		beq	.L70
 774:Middlewares/ST/STM32_USB_Host_Library/Class/HID/Src/usbh_hid.c ****       (phost->gState == HOST_INPUT) ||
 1161              		.loc 1 774 13 view .LVU358
 1162 000e 0378     		ldrb	r3, [r0]	@ zero_extendqisi2
 1163 0010 DBB2     		uxtb	r3, r3
 773:Middlewares/ST/STM32_USB_Host_Library/Class/HID/Src/usbh_hid.c ****       (phost->gState == HOST_INPUT) ||
 1164              		.loc 1 773 45 discriminator 1 view .LVU359
 1165 0012 072B     		cmp	r3, #7
 1166 0014 0DD0     		beq	.L70
 775:Middlewares/ST/STM32_USB_Host_Library/Class/HID/Src/usbh_hid.c ****       (phost->gState == HOST_SET_CONFIGURATION) ||
 1167              		.loc 1 775 13 view .LVU360
 1168 0016 0378     		ldrb	r3, [r0]	@ zero_extendqisi2
 1169 0018 DBB2     		uxtb	r3, r3
 774:Middlewares/ST/STM32_USB_Host_Library/Class/HID/Src/usbh_hid.c ****       (phost->gState == HOST_INPUT) ||
 1170              		.loc 1 774 37 view .LVU361
 1171 001a 082B     		cmp	r3, #8
 1172 001c 09D0     		beq	.L70
 776:Middlewares/ST/STM32_USB_Host_Library/Class/HID/Src/usbh_hid.c ****       (phost->gState == HOST_CHECK_CLASS) ||
 1173              		.loc 1 776 13 view .LVU362
 1174 001e 0378     		ldrb	r3, [r0]	@ zero_extendqisi2
 1175 0020 DBB2     		uxtb	r3, r3
 775:Middlewares/ST/STM32_USB_Host_Library/Class/HID/Src/usbh_hid.c ****       (phost->gState == HOST_SET_CONFIGURATION) ||
 1176              		.loc 1 775 49 view .LVU363
 1177 0022 0A2B     		cmp	r3, #10
 1178 0024 05D0     		beq	.L70
 777:Middlewares/ST/STM32_USB_Host_Library/Class/HID/Src/usbh_hid.c ****       ((phost->gState == HOST_CLASS)))
 1179              		.loc 1 777 14 view .LVU364
 1180 0026 0378     		ldrb	r3, [r0]	@ zero_extendqisi2
 1181 0028 DBB2     		uxtb	r3, r3
 776:Middlewares/ST/STM32_USB_Host_Library/Class/HID/Src/usbh_hid.c ****       (phost->gState == HOST_CHECK_CLASS) ||
 1182              		.loc 1 776 43 view .LVU365
ARM GAS  /tmp/ccKBEJwZ.s 			page 40


 1183 002a 0B2B     		cmp	r3, #11
 1184 002c 01D0     		beq	.L70
 778:Middlewares/ST/STM32_USB_Host_Library/Class/HID/Src/usbh_hid.c ****   {
 779:Middlewares/ST/STM32_USB_Host_Library/Class/HID/Src/usbh_hid.c ****     return (uint8_t)(HID_Handle->poll);
 780:Middlewares/ST/STM32_USB_Host_Library/Class/HID/Src/usbh_hid.c ****   }
 781:Middlewares/ST/STM32_USB_Host_Library/Class/HID/Src/usbh_hid.c ****   else
 782:Middlewares/ST/STM32_USB_Host_Library/Class/HID/Src/usbh_hid.c ****   {
 783:Middlewares/ST/STM32_USB_Host_Library/Class/HID/Src/usbh_hid.c ****     return 0U;
 1185              		.loc 1 783 12 view .LVU366
 1186 002e 0020     		movs	r0, #0
 1187              	.LVL94:
 784:Middlewares/ST/STM32_USB_Host_Library/Class/HID/Src/usbh_hid.c ****   }
 785:Middlewares/ST/STM32_USB_Host_Library/Class/HID/Src/usbh_hid.c **** }
 1188              		.loc 1 785 1 view .LVU367
 1189 0030 7047     		bx	lr
 1190              	.LVL95:
 1191              	.L70:
 779:Middlewares/ST/STM32_USB_Host_Library/Class/HID/Src/usbh_hid.c ****   }
 1192              		.loc 1 779 5 is_stmt 1 view .LVU368
 779:Middlewares/ST/STM32_USB_Host_Library/Class/HID/Src/usbh_hid.c ****   }
 1193              		.loc 1 779 12 is_stmt 0 view .LVU369
 1194 0032 107F     		ldrb	r0, [r2, #28]	@ zero_extendqisi2
 1195              	.LVL96:
 779:Middlewares/ST/STM32_USB_Host_Library/Class/HID/Src/usbh_hid.c ****   }
 1196              		.loc 1 779 12 view .LVU370
 1197 0034 7047     		bx	lr
 1198              		.cfi_endproc
 1199              	.LFE344:
 1201              		.section	.text.USBH_HID_FifoInit,"ax",%progbits
 1202              		.align	1
 1203              		.global	USBH_HID_FifoInit
 1204              		.syntax unified
 1205              		.thumb
 1206              		.thumb_func
 1208              	USBH_HID_FifoInit:
 1209              	.LVL97:
 1210              	.LFB345:
 786:Middlewares/ST/STM32_USB_Host_Library/Class/HID/Src/usbh_hid.c **** /**
 787:Middlewares/ST/STM32_USB_Host_Library/Class/HID/Src/usbh_hid.c ****   * @brief  USBH_HID_FifoInit
 788:Middlewares/ST/STM32_USB_Host_Library/Class/HID/Src/usbh_hid.c ****   *         Initialize FIFO.
 789:Middlewares/ST/STM32_USB_Host_Library/Class/HID/Src/usbh_hid.c ****   * @param  f: Fifo address
 790:Middlewares/ST/STM32_USB_Host_Library/Class/HID/Src/usbh_hid.c ****   * @param  buf: Fifo buffer
 791:Middlewares/ST/STM32_USB_Host_Library/Class/HID/Src/usbh_hid.c ****   * @param  size: Fifo Size
 792:Middlewares/ST/STM32_USB_Host_Library/Class/HID/Src/usbh_hid.c ****   * @retval none
 793:Middlewares/ST/STM32_USB_Host_Library/Class/HID/Src/usbh_hid.c ****   */
 794:Middlewares/ST/STM32_USB_Host_Library/Class/HID/Src/usbh_hid.c **** void USBH_HID_FifoInit(FIFO_TypeDef *f, uint8_t *buf, uint16_t size)
 795:Middlewares/ST/STM32_USB_Host_Library/Class/HID/Src/usbh_hid.c **** {
 1211              		.loc 1 795 1 is_stmt 1 view -0
 1212              		.cfi_startproc
 1213              		@ args = 0, pretend = 0, frame = 0
 1214              		@ frame_needed = 0, uses_anonymous_args = 0
 1215              		@ link register save eliminated.
 796:Middlewares/ST/STM32_USB_Host_Library/Class/HID/Src/usbh_hid.c ****   f->head = 0U;
 1216              		.loc 1 796 3 view .LVU372
 1217              		.loc 1 796 11 is_stmt 0 view .LVU373
 1218 0000 0023     		movs	r3, #0
 1219 0002 8380     		strh	r3, [r0, #4]	@ movhi
ARM GAS  /tmp/ccKBEJwZ.s 			page 41


 797:Middlewares/ST/STM32_USB_Host_Library/Class/HID/Src/usbh_hid.c ****   f->tail = 0U;
 1220              		.loc 1 797 3 is_stmt 1 view .LVU374
 1221              		.loc 1 797 11 is_stmt 0 view .LVU375
 1222 0004 C380     		strh	r3, [r0, #6]	@ movhi
 798:Middlewares/ST/STM32_USB_Host_Library/Class/HID/Src/usbh_hid.c ****   f->lock = 0U;
 1223              		.loc 1 798 3 is_stmt 1 view .LVU376
 1224              		.loc 1 798 11 is_stmt 0 view .LVU377
 1225 0006 8372     		strb	r3, [r0, #10]
 799:Middlewares/ST/STM32_USB_Host_Library/Class/HID/Src/usbh_hid.c ****   f->size = size;
 1226              		.loc 1 799 3 is_stmt 1 view .LVU378
 1227              		.loc 1 799 11 is_stmt 0 view .LVU379
 1228 0008 0281     		strh	r2, [r0, #8]	@ movhi
 800:Middlewares/ST/STM32_USB_Host_Library/Class/HID/Src/usbh_hid.c ****   f->buf = buf;
 1229              		.loc 1 800 3 is_stmt 1 view .LVU380
 1230              		.loc 1 800 10 is_stmt 0 view .LVU381
 1231 000a 0160     		str	r1, [r0]
 801:Middlewares/ST/STM32_USB_Host_Library/Class/HID/Src/usbh_hid.c **** }
 1232              		.loc 1 801 1 view .LVU382
 1233 000c 7047     		bx	lr
 1234              		.cfi_endproc
 1235              	.LFE345:
 1237              		.section	.text.USBH_HID_FifoRead,"ax",%progbits
 1238              		.align	1
 1239              		.global	USBH_HID_FifoRead
 1240              		.syntax unified
 1241              		.thumb
 1242              		.thumb_func
 1244              	USBH_HID_FifoRead:
 1245              	.LVL98:
 1246              	.LFB346:
 802:Middlewares/ST/STM32_USB_Host_Library/Class/HID/Src/usbh_hid.c **** 
 803:Middlewares/ST/STM32_USB_Host_Library/Class/HID/Src/usbh_hid.c **** /**
 804:Middlewares/ST/STM32_USB_Host_Library/Class/HID/Src/usbh_hid.c ****   * @brief  USBH_HID_FifoRead
 805:Middlewares/ST/STM32_USB_Host_Library/Class/HID/Src/usbh_hid.c ****   *         Read from FIFO.
 806:Middlewares/ST/STM32_USB_Host_Library/Class/HID/Src/usbh_hid.c ****   * @param  f: Fifo address
 807:Middlewares/ST/STM32_USB_Host_Library/Class/HID/Src/usbh_hid.c ****   * @param  buf: read buffer
 808:Middlewares/ST/STM32_USB_Host_Library/Class/HID/Src/usbh_hid.c ****   * @param  nbytes: number of item to read
 809:Middlewares/ST/STM32_USB_Host_Library/Class/HID/Src/usbh_hid.c ****   * @retval number of read items
 810:Middlewares/ST/STM32_USB_Host_Library/Class/HID/Src/usbh_hid.c ****   */
 811:Middlewares/ST/STM32_USB_Host_Library/Class/HID/Src/usbh_hid.c **** uint16_t USBH_HID_FifoRead(FIFO_TypeDef *f, void *buf, uint16_t nbytes)
 812:Middlewares/ST/STM32_USB_Host_Library/Class/HID/Src/usbh_hid.c **** {
 1247              		.loc 1 812 1 is_stmt 1 view -0
 1248              		.cfi_startproc
 1249              		@ args = 0, pretend = 0, frame = 0
 1250              		@ frame_needed = 0, uses_anonymous_args = 0
 1251              		.loc 1 812 1 is_stmt 0 view .LVU384
 1252 0000 0346     		mov	r3, r0
 813:Middlewares/ST/STM32_USB_Host_Library/Class/HID/Src/usbh_hid.c ****   uint16_t i;
 1253              		.loc 1 813 3 is_stmt 1 view .LVU385
 814:Middlewares/ST/STM32_USB_Host_Library/Class/HID/Src/usbh_hid.c ****   uint8_t *p;
 1254              		.loc 1 814 3 view .LVU386
 815:Middlewares/ST/STM32_USB_Host_Library/Class/HID/Src/usbh_hid.c **** 
 816:Middlewares/ST/STM32_USB_Host_Library/Class/HID/Src/usbh_hid.c ****   p = (uint8_t *) buf;
 1255              		.loc 1 816 3 view .LVU387
 1256              	.LVL99:
 817:Middlewares/ST/STM32_USB_Host_Library/Class/HID/Src/usbh_hid.c **** 
 818:Middlewares/ST/STM32_USB_Host_Library/Class/HID/Src/usbh_hid.c ****   if (f->lock == 0U)
ARM GAS  /tmp/ccKBEJwZ.s 			page 42


 1257              		.loc 1 818 3 view .LVU388
 1258              		.loc 1 818 8 is_stmt 0 view .LVU389
 1259 0002 807A     		ldrb	r0, [r0, #10]	@ zero_extendqisi2
 1260              	.LVL100:
 1261              		.loc 1 818 6 view .LVU390
 1262 0004 68BB     		cbnz	r0, .L82
 819:Middlewares/ST/STM32_USB_Host_Library/Class/HID/Src/usbh_hid.c ****   {
 820:Middlewares/ST/STM32_USB_Host_Library/Class/HID/Src/usbh_hid.c ****     f->lock = 1U;
 1263              		.loc 1 820 5 is_stmt 1 view .LVU391
 1264              		.loc 1 820 13 is_stmt 0 view .LVU392
 1265 0006 0120     		movs	r0, #1
 1266 0008 9872     		strb	r0, [r3, #10]
 821:Middlewares/ST/STM32_USB_Host_Library/Class/HID/Src/usbh_hid.c **** 
 822:Middlewares/ST/STM32_USB_Host_Library/Class/HID/Src/usbh_hid.c ****     for (i = 0U; i < nbytes; i++)
 1267              		.loc 1 822 5 is_stmt 1 view .LVU393
 1268              	.LVL101:
 1269              		.loc 1 822 12 is_stmt 0 view .LVU394
 1270 000a 0020     		movs	r0, #0
 1271              	.LVL102:
 1272              		.loc 1 822 20 is_stmt 1 discriminator 1 view .LVU395
 1273 000c 9042     		cmp	r0, r2
 1274 000e 28D2     		bcs	.L82
 812:Middlewares/ST/STM32_USB_Host_Library/Class/HID/Src/usbh_hid.c ****   uint16_t i;
 1275              		.loc 1 812 1 is_stmt 0 view .LVU396
 1276 0010 10B5     		push	{r4, lr}
 1277              	.LCFI19:
 1278              		.cfi_def_cfa_offset 8
 1279              		.cfi_offset 4, -8
 1280              		.cfi_offset 14, -4
 1281 0012 06E0     		b	.L80
 1282              	.LVL103:
 1283              	.L77:
 823:Middlewares/ST/STM32_USB_Host_Library/Class/HID/Src/usbh_hid.c ****     {
 824:Middlewares/ST/STM32_USB_Host_Library/Class/HID/Src/usbh_hid.c ****       if (f->tail != f->head)
 825:Middlewares/ST/STM32_USB_Host_Library/Class/HID/Src/usbh_hid.c ****       {
 826:Middlewares/ST/STM32_USB_Host_Library/Class/HID/Src/usbh_hid.c ****         *p++ = f->buf[f->tail];
 827:Middlewares/ST/STM32_USB_Host_Library/Class/HID/Src/usbh_hid.c ****         f->tail++;
 828:Middlewares/ST/STM32_USB_Host_Library/Class/HID/Src/usbh_hid.c **** 
 829:Middlewares/ST/STM32_USB_Host_Library/Class/HID/Src/usbh_hid.c ****         if (f->tail == f->size)
 830:Middlewares/ST/STM32_USB_Host_Library/Class/HID/Src/usbh_hid.c ****         {
 831:Middlewares/ST/STM32_USB_Host_Library/Class/HID/Src/usbh_hid.c ****           f->tail = 0U;
 832:Middlewares/ST/STM32_USB_Host_Library/Class/HID/Src/usbh_hid.c ****         }
 833:Middlewares/ST/STM32_USB_Host_Library/Class/HID/Src/usbh_hid.c ****       }
 834:Middlewares/ST/STM32_USB_Host_Library/Class/HID/Src/usbh_hid.c ****       else
 835:Middlewares/ST/STM32_USB_Host_Library/Class/HID/Src/usbh_hid.c ****       {
 836:Middlewares/ST/STM32_USB_Host_Library/Class/HID/Src/usbh_hid.c ****         f->lock = 0U;
 1284              		.loc 1 836 9 is_stmt 1 view .LVU397
 1285              		.loc 1 836 17 is_stmt 0 view .LVU398
 1286 0014 0022     		movs	r2, #0
 1287              	.LVL104:
 1288              		.loc 1 836 17 view .LVU399
 1289 0016 9A72     		strb	r2, [r3, #10]
 837:Middlewares/ST/STM32_USB_Host_Library/Class/HID/Src/usbh_hid.c ****         return i;
 1290              		.loc 1 837 9 is_stmt 1 view .LVU400
 1291              		.loc 1 837 16 is_stmt 0 view .LVU401
 1292 0018 22E0     		b	.L79
 1293              	.LVL105:
ARM GAS  /tmp/ccKBEJwZ.s 			page 43


 1294              	.L78:
 822:Middlewares/ST/STM32_USB_Host_Library/Class/HID/Src/usbh_hid.c ****     {
 1295              		.loc 1 822 31 is_stmt 1 discriminator 2 view .LVU402
 1296 001a 0130     		adds	r0, r0, #1
 1297              	.LVL106:
 822:Middlewares/ST/STM32_USB_Host_Library/Class/HID/Src/usbh_hid.c ****     {
 1298              		.loc 1 822 31 is_stmt 0 discriminator 2 view .LVU403
 1299 001c 80B2     		uxth	r0, r0
 1300              	.LVL107:
 822:Middlewares/ST/STM32_USB_Host_Library/Class/HID/Src/usbh_hid.c ****     {
 1301              		.loc 1 822 20 is_stmt 1 discriminator 1 view .LVU404
 1302 001e 9042     		cmp	r0, r2
 1303 0020 1BD2     		bcs	.L87
 1304              	.L80:
 824:Middlewares/ST/STM32_USB_Host_Library/Class/HID/Src/usbh_hid.c ****       {
 1305              		.loc 1 824 7 view .LVU405
 824:Middlewares/ST/STM32_USB_Host_Library/Class/HID/Src/usbh_hid.c ****       {
 1306              		.loc 1 824 12 is_stmt 0 view .LVU406
 1307 0022 B3F806C0 		ldrh	ip, [r3, #6]
 824:Middlewares/ST/STM32_USB_Host_Library/Class/HID/Src/usbh_hid.c ****       {
 1308              		.loc 1 824 23 view .LVU407
 1309 0026 B3F804E0 		ldrh	lr, [r3, #4]
 824:Middlewares/ST/STM32_USB_Host_Library/Class/HID/Src/usbh_hid.c ****       {
 1310              		.loc 1 824 10 view .LVU408
 1311 002a F445     		cmp	ip, lr
 1312 002c F2D0     		beq	.L77
 826:Middlewares/ST/STM32_USB_Host_Library/Class/HID/Src/usbh_hid.c ****         f->tail++;
 1313              		.loc 1 826 9 is_stmt 1 view .LVU409
 1314              	.LVL108:
 826:Middlewares/ST/STM32_USB_Host_Library/Class/HID/Src/usbh_hid.c ****         f->tail++;
 1315              		.loc 1 826 22 is_stmt 0 view .LVU410
 1316 002e 1C68     		ldr	r4, [r3]
 1317 0030 14F80CC0 		ldrb	ip, [r4, ip]	@ zero_extendqisi2
 826:Middlewares/ST/STM32_USB_Host_Library/Class/HID/Src/usbh_hid.c ****         f->tail++;
 1318              		.loc 1 826 14 view .LVU411
 1319 0034 01F801CB 		strb	ip, [r1], #1
 1320              	.LVL109:
 827:Middlewares/ST/STM32_USB_Host_Library/Class/HID/Src/usbh_hid.c **** 
 1321              		.loc 1 827 9 is_stmt 1 view .LVU412
 827:Middlewares/ST/STM32_USB_Host_Library/Class/HID/Src/usbh_hid.c **** 
 1322              		.loc 1 827 10 is_stmt 0 view .LVU413
 1323 0038 B3F806C0 		ldrh	ip, [r3, #6]
 827:Middlewares/ST/STM32_USB_Host_Library/Class/HID/Src/usbh_hid.c **** 
 1324              		.loc 1 827 16 view .LVU414
 1325 003c 0CF1010C 		add	ip, ip, #1
 1326 0040 1FFA8CFC 		uxth	ip, ip
 1327 0044 A3F806C0 		strh	ip, [r3, #6]	@ movhi
 829:Middlewares/ST/STM32_USB_Host_Library/Class/HID/Src/usbh_hid.c ****         {
 1328              		.loc 1 829 9 is_stmt 1 view .LVU415
 829:Middlewares/ST/STM32_USB_Host_Library/Class/HID/Src/usbh_hid.c ****         {
 1329              		.loc 1 829 25 is_stmt 0 view .LVU416
 1330 0048 B3F808E0 		ldrh	lr, [r3, #8]
 829:Middlewares/ST/STM32_USB_Host_Library/Class/HID/Src/usbh_hid.c ****         {
 1331              		.loc 1 829 12 view .LVU417
 1332 004c F445     		cmp	ip, lr
 1333 004e E4D1     		bne	.L78
 831:Middlewares/ST/STM32_USB_Host_Library/Class/HID/Src/usbh_hid.c ****         }
ARM GAS  /tmp/ccKBEJwZ.s 			page 44


 1334              		.loc 1 831 11 is_stmt 1 view .LVU418
 831:Middlewares/ST/STM32_USB_Host_Library/Class/HID/Src/usbh_hid.c ****         }
 1335              		.loc 1 831 19 is_stmt 0 view .LVU419
 1336 0050 4FF0000C 		mov	ip, #0
 1337 0054 A3F806C0 		strh	ip, [r3, #6]	@ movhi
 1338 0058 DFE7     		b	.L78
 1339              	.L87:
 838:Middlewares/ST/STM32_USB_Host_Library/Class/HID/Src/usbh_hid.c ****       }
 839:Middlewares/ST/STM32_USB_Host_Library/Class/HID/Src/usbh_hid.c ****     }
 840:Middlewares/ST/STM32_USB_Host_Library/Class/HID/Src/usbh_hid.c ****   }
 841:Middlewares/ST/STM32_USB_Host_Library/Class/HID/Src/usbh_hid.c **** 
 842:Middlewares/ST/STM32_USB_Host_Library/Class/HID/Src/usbh_hid.c ****   f->lock = 0U;
 1340              		.loc 1 842 3 is_stmt 1 view .LVU420
 1341              		.loc 1 842 11 is_stmt 0 view .LVU421
 1342 005a 0021     		movs	r1, #0
 1343              	.LVL110:
 1344              		.loc 1 842 11 view .LVU422
 1345 005c 9972     		strb	r1, [r3, #10]
 843:Middlewares/ST/STM32_USB_Host_Library/Class/HID/Src/usbh_hid.c **** 
 844:Middlewares/ST/STM32_USB_Host_Library/Class/HID/Src/usbh_hid.c ****   return nbytes;
 1346              		.loc 1 844 3 is_stmt 1 view .LVU423
 1347              		.loc 1 844 10 is_stmt 0 view .LVU424
 1348 005e 1046     		mov	r0, r2
 1349              	.LVL111:
 1350              	.L79:
 845:Middlewares/ST/STM32_USB_Host_Library/Class/HID/Src/usbh_hid.c **** }
 1351              		.loc 1 845 1 view .LVU425
 1352 0060 10BD     		pop	{r4, pc}
 1353              	.LVL112:
 1354              	.L82:
 1355              	.LCFI20:
 1356              		.cfi_def_cfa_offset 0
 1357              		.cfi_restore 4
 1358              		.cfi_restore 14
 842:Middlewares/ST/STM32_USB_Host_Library/Class/HID/Src/usbh_hid.c **** 
 1359              		.loc 1 842 3 is_stmt 1 view .LVU426
 842:Middlewares/ST/STM32_USB_Host_Library/Class/HID/Src/usbh_hid.c **** 
 1360              		.loc 1 842 11 is_stmt 0 view .LVU427
 1361 0062 0021     		movs	r1, #0
 1362              	.LVL113:
 842:Middlewares/ST/STM32_USB_Host_Library/Class/HID/Src/usbh_hid.c **** 
 1363              		.loc 1 842 11 view .LVU428
 1364 0064 9972     		strb	r1, [r3, #10]
 844:Middlewares/ST/STM32_USB_Host_Library/Class/HID/Src/usbh_hid.c **** }
 1365              		.loc 1 844 3 is_stmt 1 view .LVU429
 844:Middlewares/ST/STM32_USB_Host_Library/Class/HID/Src/usbh_hid.c **** }
 1366              		.loc 1 844 10 is_stmt 0 view .LVU430
 1367 0066 1046     		mov	r0, r2
 1368              		.loc 1 845 1 view .LVU431
 1369 0068 7047     		bx	lr
 1370              		.cfi_endproc
 1371              	.LFE346:
 1373              		.section	.text.USBH_HID_FifoWrite,"ax",%progbits
 1374              		.align	1
 1375              		.global	USBH_HID_FifoWrite
 1376              		.syntax unified
 1377              		.thumb
ARM GAS  /tmp/ccKBEJwZ.s 			page 45


 1378              		.thumb_func
 1380              	USBH_HID_FifoWrite:
 1381              	.LVL114:
 1382              	.LFB347:
 846:Middlewares/ST/STM32_USB_Host_Library/Class/HID/Src/usbh_hid.c **** 
 847:Middlewares/ST/STM32_USB_Host_Library/Class/HID/Src/usbh_hid.c **** /**
 848:Middlewares/ST/STM32_USB_Host_Library/Class/HID/Src/usbh_hid.c ****   * @brief  USBH_HID_FifoWrite
 849:Middlewares/ST/STM32_USB_Host_Library/Class/HID/Src/usbh_hid.c ****   *         Write To FIFO.
 850:Middlewares/ST/STM32_USB_Host_Library/Class/HID/Src/usbh_hid.c ****   * @param  f: Fifo address
 851:Middlewares/ST/STM32_USB_Host_Library/Class/HID/Src/usbh_hid.c ****   * @param  buf: read buffer
 852:Middlewares/ST/STM32_USB_Host_Library/Class/HID/Src/usbh_hid.c ****   * @param  nbytes: number of item to write
 853:Middlewares/ST/STM32_USB_Host_Library/Class/HID/Src/usbh_hid.c ****   * @retval number of written items
 854:Middlewares/ST/STM32_USB_Host_Library/Class/HID/Src/usbh_hid.c ****   */
 855:Middlewares/ST/STM32_USB_Host_Library/Class/HID/Src/usbh_hid.c **** uint16_t USBH_HID_FifoWrite(FIFO_TypeDef *f, void *buf, uint16_t  nbytes)
 856:Middlewares/ST/STM32_USB_Host_Library/Class/HID/Src/usbh_hid.c **** {
 1383              		.loc 1 856 1 is_stmt 1 view -0
 1384              		.cfi_startproc
 1385              		@ args = 0, pretend = 0, frame = 0
 1386              		@ frame_needed = 0, uses_anonymous_args = 0
 1387              		.loc 1 856 1 is_stmt 0 view .LVU433
 1388 0000 0346     		mov	r3, r0
 857:Middlewares/ST/STM32_USB_Host_Library/Class/HID/Src/usbh_hid.c ****   uint16_t i;
 1389              		.loc 1 857 3 is_stmt 1 view .LVU434
 858:Middlewares/ST/STM32_USB_Host_Library/Class/HID/Src/usbh_hid.c ****   uint8_t *p;
 1390              		.loc 1 858 3 view .LVU435
 859:Middlewares/ST/STM32_USB_Host_Library/Class/HID/Src/usbh_hid.c **** 
 860:Middlewares/ST/STM32_USB_Host_Library/Class/HID/Src/usbh_hid.c ****   p = (uint8_t *) buf;
 1391              		.loc 1 860 3 view .LVU436
 1392              	.LVL115:
 861:Middlewares/ST/STM32_USB_Host_Library/Class/HID/Src/usbh_hid.c **** 
 862:Middlewares/ST/STM32_USB_Host_Library/Class/HID/Src/usbh_hid.c ****   if (f->lock == 0U)
 1393              		.loc 1 862 3 view .LVU437
 1394              		.loc 1 862 8 is_stmt 0 view .LVU438
 1395 0002 807A     		ldrb	r0, [r0, #10]	@ zero_extendqisi2
 1396              	.LVL116:
 1397              		.loc 1 862 6 view .LVU439
 1398 0004 78BB     		cbnz	r0, .L97
 863:Middlewares/ST/STM32_USB_Host_Library/Class/HID/Src/usbh_hid.c ****   {
 864:Middlewares/ST/STM32_USB_Host_Library/Class/HID/Src/usbh_hid.c ****     f->lock = 1U;
 1399              		.loc 1 864 5 is_stmt 1 view .LVU440
 1400              		.loc 1 864 13 is_stmt 0 view .LVU441
 1401 0006 0120     		movs	r0, #1
 1402 0008 9872     		strb	r0, [r3, #10]
 865:Middlewares/ST/STM32_USB_Host_Library/Class/HID/Src/usbh_hid.c **** 
 866:Middlewares/ST/STM32_USB_Host_Library/Class/HID/Src/usbh_hid.c ****     for (i = 0U; i < nbytes; i++)
 1403              		.loc 1 866 5 is_stmt 1 view .LVU442
 1404              	.LVL117:
 1405              		.loc 1 866 12 is_stmt 0 view .LVU443
 1406 000a 0020     		movs	r0, #0
 1407              	.LVL118:
 1408              		.loc 1 866 20 is_stmt 1 discriminator 1 view .LVU444
 1409 000c 9042     		cmp	r0, r2
 1410 000e 2AD2     		bcs	.L97
 856:Middlewares/ST/STM32_USB_Host_Library/Class/HID/Src/usbh_hid.c ****   uint16_t i;
 1411              		.loc 1 856 1 is_stmt 0 view .LVU445
 1412 0010 30B5     		push	{r4, r5, lr}
 1413              	.LCFI21:
ARM GAS  /tmp/ccKBEJwZ.s 			page 46


 1414              		.cfi_def_cfa_offset 12
 1415              		.cfi_offset 4, -12
 1416              		.cfi_offset 5, -8
 1417              		.cfi_offset 14, -4
 1418 0012 07E0     		b	.L95
 1419              	.LVL119:
 1420              	.L103:
 867:Middlewares/ST/STM32_USB_Host_Library/Class/HID/Src/usbh_hid.c ****     {
 868:Middlewares/ST/STM32_USB_Host_Library/Class/HID/Src/usbh_hid.c ****       if ((f->head + 1U == f->tail) ||
 869:Middlewares/ST/STM32_USB_Host_Library/Class/HID/Src/usbh_hid.c ****           ((f->head + 1U == f->size) && (f->tail == 0U)))
 1421              		.loc 1 869 38 view .LVU446
 1422 0014 84B9     		cbnz	r4, .L92
 1423              	.L91:
 870:Middlewares/ST/STM32_USB_Host_Library/Class/HID/Src/usbh_hid.c ****       {
 871:Middlewares/ST/STM32_USB_Host_Library/Class/HID/Src/usbh_hid.c ****         f->lock = 0U;
 1424              		.loc 1 871 9 is_stmt 1 view .LVU447
 1425              		.loc 1 871 17 is_stmt 0 view .LVU448
 1426 0016 0022     		movs	r2, #0
 1427              	.LVL120:
 1428              		.loc 1 871 17 view .LVU449
 1429 0018 9A72     		strb	r2, [r3, #10]
 872:Middlewares/ST/STM32_USB_Host_Library/Class/HID/Src/usbh_hid.c ****         return i;
 1430              		.loc 1 872 9 is_stmt 1 view .LVU450
 1431              		.loc 1 872 16 is_stmt 0 view .LVU451
 1432 001a 23E0     		b	.L93
 1433              	.LVL121:
 1434              	.L94:
 866:Middlewares/ST/STM32_USB_Host_Library/Class/HID/Src/usbh_hid.c ****     {
 1435              		.loc 1 866 31 is_stmt 1 discriminator 2 view .LVU452
 1436 001c 0130     		adds	r0, r0, #1
 1437              	.LVL122:
 866:Middlewares/ST/STM32_USB_Host_Library/Class/HID/Src/usbh_hid.c ****     {
 1438              		.loc 1 866 31 is_stmt 0 discriminator 2 view .LVU453
 1439 001e 80B2     		uxth	r0, r0
 1440              	.LVL123:
 866:Middlewares/ST/STM32_USB_Host_Library/Class/HID/Src/usbh_hid.c ****     {
 1441              		.loc 1 866 20 is_stmt 1 discriminator 1 view .LVU454
 1442 0020 9042     		cmp	r0, r2
 1443 0022 1CD2     		bcs	.L102
 1444              	.L95:
 868:Middlewares/ST/STM32_USB_Host_Library/Class/HID/Src/usbh_hid.c ****           ((f->head + 1U == f->size) && (f->tail == 0U)))
 1445              		.loc 1 868 7 view .LVU455
 868:Middlewares/ST/STM32_USB_Host_Library/Class/HID/Src/usbh_hid.c ****           ((f->head + 1U == f->size) && (f->tail == 0U)))
 1446              		.loc 1 868 13 is_stmt 0 view .LVU456
 1447 0024 B3F804E0 		ldrh	lr, [r3, #4]
 868:Middlewares/ST/STM32_USB_Host_Library/Class/HID/Src/usbh_hid.c ****           ((f->head + 1U == f->size) && (f->tail == 0U)))
 1448              		.loc 1 868 20 view .LVU457
 1449 0028 0EF1010C 		add	ip, lr, #1
 868:Middlewares/ST/STM32_USB_Host_Library/Class/HID/Src/usbh_hid.c ****           ((f->head + 1U == f->size) && (f->tail == 0U)))
 1450              		.loc 1 868 29 view .LVU458
 1451 002c DC88     		ldrh	r4, [r3, #6]
 868:Middlewares/ST/STM32_USB_Host_Library/Class/HID/Src/usbh_hid.c ****           ((f->head + 1U == f->size) && (f->tail == 0U)))
 1452              		.loc 1 868 10 view .LVU459
 1453 002e A445     		cmp	ip, r4
 1454 0030 F1D0     		beq	.L91
 869:Middlewares/ST/STM32_USB_Host_Library/Class/HID/Src/usbh_hid.c ****       {
 1455              		.loc 1 869 30 view .LVU460
ARM GAS  /tmp/ccKBEJwZ.s 			page 47


 1456 0032 1D89     		ldrh	r5, [r3, #8]
 868:Middlewares/ST/STM32_USB_Host_Library/Class/HID/Src/usbh_hid.c ****           ((f->head + 1U == f->size) && (f->tail == 0U)))
 1457              		.loc 1 868 37 discriminator 1 view .LVU461
 1458 0034 AC45     		cmp	ip, r5
 1459 0036 EDD0     		beq	.L103
 1460              	.L92:
 873:Middlewares/ST/STM32_USB_Host_Library/Class/HID/Src/usbh_hid.c ****       }
 874:Middlewares/ST/STM32_USB_Host_Library/Class/HID/Src/usbh_hid.c ****       else
 875:Middlewares/ST/STM32_USB_Host_Library/Class/HID/Src/usbh_hid.c ****       {
 876:Middlewares/ST/STM32_USB_Host_Library/Class/HID/Src/usbh_hid.c ****         f->buf[f->head] = *p++;
 1461              		.loc 1 876 9 is_stmt 1 view .LVU462
 1462              	.LVL124:
 1463              		.loc 1 876 10 is_stmt 0 view .LVU463
 1464 0038 1C68     		ldr	r4, [r3]
 1465              		.loc 1 876 27 view .LVU464
 1466 003a 11F8015B 		ldrb	r5, [r1], #1	@ zero_extendqisi2
 1467              	.LVL125:
 1468              		.loc 1 876 25 view .LVU465
 1469 003e 04F80E50 		strb	r5, [r4, lr]
 877:Middlewares/ST/STM32_USB_Host_Library/Class/HID/Src/usbh_hid.c ****         f->head++;
 1470              		.loc 1 877 9 is_stmt 1 view .LVU466
 1471              		.loc 1 877 10 is_stmt 0 view .LVU467
 1472 0042 B3F804C0 		ldrh	ip, [r3, #4]
 1473              		.loc 1 877 16 view .LVU468
 1474 0046 0CF1010C 		add	ip, ip, #1
 1475 004a 1FFA8CFC 		uxth	ip, ip
 1476 004e A3F804C0 		strh	ip, [r3, #4]	@ movhi
 878:Middlewares/ST/STM32_USB_Host_Library/Class/HID/Src/usbh_hid.c **** 
 879:Middlewares/ST/STM32_USB_Host_Library/Class/HID/Src/usbh_hid.c ****         if (f->head == f->size)
 1477              		.loc 1 879 9 is_stmt 1 view .LVU469
 1478              		.loc 1 879 25 is_stmt 0 view .LVU470
 1479 0052 1C89     		ldrh	r4, [r3, #8]
 1480              		.loc 1 879 12 view .LVU471
 1481 0054 A445     		cmp	ip, r4
 1482 0056 E1D1     		bne	.L94
 880:Middlewares/ST/STM32_USB_Host_Library/Class/HID/Src/usbh_hid.c ****         {
 881:Middlewares/ST/STM32_USB_Host_Library/Class/HID/Src/usbh_hid.c ****           f->head = 0U;
 1483              		.loc 1 881 11 is_stmt 1 view .LVU472
 1484              		.loc 1 881 19 is_stmt 0 view .LVU473
 1485 0058 0024     		movs	r4, #0
 1486 005a 9C80     		strh	r4, [r3, #4]	@ movhi
 1487 005c DEE7     		b	.L94
 1488              	.L102:
 882:Middlewares/ST/STM32_USB_Host_Library/Class/HID/Src/usbh_hid.c ****         }
 883:Middlewares/ST/STM32_USB_Host_Library/Class/HID/Src/usbh_hid.c ****       }
 884:Middlewares/ST/STM32_USB_Host_Library/Class/HID/Src/usbh_hid.c ****     }
 885:Middlewares/ST/STM32_USB_Host_Library/Class/HID/Src/usbh_hid.c ****   }
 886:Middlewares/ST/STM32_USB_Host_Library/Class/HID/Src/usbh_hid.c **** 
 887:Middlewares/ST/STM32_USB_Host_Library/Class/HID/Src/usbh_hid.c ****   f->lock = 0U;
 1489              		.loc 1 887 3 is_stmt 1 view .LVU474
 1490              		.loc 1 887 11 is_stmt 0 view .LVU475
 1491 005e 0021     		movs	r1, #0
 1492              	.LVL126:
 1493              		.loc 1 887 11 view .LVU476
 1494 0060 9972     		strb	r1, [r3, #10]
 888:Middlewares/ST/STM32_USB_Host_Library/Class/HID/Src/usbh_hid.c **** 
 889:Middlewares/ST/STM32_USB_Host_Library/Class/HID/Src/usbh_hid.c ****   return nbytes;
ARM GAS  /tmp/ccKBEJwZ.s 			page 48


 1495              		.loc 1 889 3 is_stmt 1 view .LVU477
 1496              		.loc 1 889 10 is_stmt 0 view .LVU478
 1497 0062 1046     		mov	r0, r2
 1498              	.LVL127:
 1499              	.L93:
 890:Middlewares/ST/STM32_USB_Host_Library/Class/HID/Src/usbh_hid.c **** }
 1500              		.loc 1 890 1 view .LVU479
 1501 0064 30BD     		pop	{r4, r5, pc}
 1502              	.LVL128:
 1503              	.L97:
 1504              	.LCFI22:
 1505              		.cfi_def_cfa_offset 0
 1506              		.cfi_restore 4
 1507              		.cfi_restore 5
 1508              		.cfi_restore 14
 887:Middlewares/ST/STM32_USB_Host_Library/Class/HID/Src/usbh_hid.c **** 
 1509              		.loc 1 887 3 is_stmt 1 view .LVU480
 887:Middlewares/ST/STM32_USB_Host_Library/Class/HID/Src/usbh_hid.c **** 
 1510              		.loc 1 887 11 is_stmt 0 view .LVU481
 1511 0066 0021     		movs	r1, #0
 1512              	.LVL129:
 887:Middlewares/ST/STM32_USB_Host_Library/Class/HID/Src/usbh_hid.c **** 
 1513              		.loc 1 887 11 view .LVU482
 1514 0068 9972     		strb	r1, [r3, #10]
 889:Middlewares/ST/STM32_USB_Host_Library/Class/HID/Src/usbh_hid.c **** }
 1515              		.loc 1 889 3 is_stmt 1 view .LVU483
 889:Middlewares/ST/STM32_USB_Host_Library/Class/HID/Src/usbh_hid.c **** }
 1516              		.loc 1 889 10 is_stmt 0 view .LVU484
 1517 006a 1046     		mov	r0, r2
 1518              		.loc 1 890 1 view .LVU485
 1519 006c 7047     		bx	lr
 1520              		.cfi_endproc
 1521              	.LFE347:
 1523              		.section	.text.USBH_HID_EventCallback,"ax",%progbits
 1524              		.align	1
 1525              		.weak	USBH_HID_EventCallback
 1526              		.syntax unified
 1527              		.thumb
 1528              		.thumb_func
 1530              	USBH_HID_EventCallback:
 1531              	.LVL130:
 1532              	.LFB348:
 891:Middlewares/ST/STM32_USB_Host_Library/Class/HID/Src/usbh_hid.c **** 
 892:Middlewares/ST/STM32_USB_Host_Library/Class/HID/Src/usbh_hid.c **** /**
 893:Middlewares/ST/STM32_USB_Host_Library/Class/HID/Src/usbh_hid.c **** * @brief  The function is a callback about HID Data events
 894:Middlewares/ST/STM32_USB_Host_Library/Class/HID/Src/usbh_hid.c **** *  @param  phost: Selected device
 895:Middlewares/ST/STM32_USB_Host_Library/Class/HID/Src/usbh_hid.c **** * @retval None
 896:Middlewares/ST/STM32_USB_Host_Library/Class/HID/Src/usbh_hid.c **** */
 897:Middlewares/ST/STM32_USB_Host_Library/Class/HID/Src/usbh_hid.c **** __weak void USBH_HID_EventCallback(USBH_HandleTypeDef *phost)
 898:Middlewares/ST/STM32_USB_Host_Library/Class/HID/Src/usbh_hid.c **** {
 1533              		.loc 1 898 1 is_stmt 1 view -0
 1534              		.cfi_startproc
 1535              		@ args = 0, pretend = 0, frame = 0
 1536              		@ frame_needed = 0, uses_anonymous_args = 0
 1537              		@ link register save eliminated.
 899:Middlewares/ST/STM32_USB_Host_Library/Class/HID/Src/usbh_hid.c ****   /* Prevent unused argument(s) compilation warning */
 900:Middlewares/ST/STM32_USB_Host_Library/Class/HID/Src/usbh_hid.c ****   UNUSED(phost);
ARM GAS  /tmp/ccKBEJwZ.s 			page 49


 1538              		.loc 1 900 3 view .LVU487
 901:Middlewares/ST/STM32_USB_Host_Library/Class/HID/Src/usbh_hid.c **** }
 1539              		.loc 1 901 1 is_stmt 0 view .LVU488
 1540 0000 7047     		bx	lr
 1541              		.cfi_endproc
 1542              	.LFE348:
 1544              		.section	.text.USBH_HID_Process,"ax",%progbits
 1545              		.align	1
 1546              		.syntax unified
 1547              		.thumb
 1548              		.thumb_func
 1550              	USBH_HID_Process:
 1551              	.LVL131:
 1552              	.LFB334:
 373:Middlewares/ST/STM32_USB_Host_Library/Class/HID/Src/usbh_hid.c ****   USBH_StatusTypeDef status = USBH_OK;
 1553              		.loc 1 373 1 is_stmt 1 view -0
 1554              		.cfi_startproc
 1555              		@ args = 0, pretend = 0, frame = 0
 1556              		@ frame_needed = 0, uses_anonymous_args = 0
 373:Middlewares/ST/STM32_USB_Host_Library/Class/HID/Src/usbh_hid.c ****   USBH_StatusTypeDef status = USBH_OK;
 1557              		.loc 1 373 1 is_stmt 0 view .LVU490
 1558 0000 70B5     		push	{r4, r5, r6, lr}
 1559              	.LCFI23:
 1560              		.cfi_def_cfa_offset 16
 1561              		.cfi_offset 4, -16
 1562              		.cfi_offset 5, -12
 1563              		.cfi_offset 6, -8
 1564              		.cfi_offset 14, -4
 1565 0002 82B0     		sub	sp, sp, #8
 1566              	.LCFI24:
 1567              		.cfi_def_cfa_offset 24
 1568 0004 0546     		mov	r5, r0
 374:Middlewares/ST/STM32_USB_Host_Library/Class/HID/Src/usbh_hid.c ****   HID_HandleTypeDef *HID_Handle = (HID_HandleTypeDef *) phost->pActiveClass->pData;
 1569              		.loc 1 374 3 is_stmt 1 view .LVU491
 1570              	.LVL132:
 375:Middlewares/ST/STM32_USB_Host_Library/Class/HID/Src/usbh_hid.c ****   uint32_t XferSize;
 1571              		.loc 1 375 3 view .LVU492
 375:Middlewares/ST/STM32_USB_Host_Library/Class/HID/Src/usbh_hid.c ****   uint32_t XferSize;
 1572              		.loc 1 375 62 is_stmt 0 view .LVU493
 1573 0006 D0F87C33 		ldr	r3, [r0, #892]
 375:Middlewares/ST/STM32_USB_Host_Library/Class/HID/Src/usbh_hid.c ****   uint32_t XferSize;
 1574              		.loc 1 375 22 view .LVU494
 1575 000a DE69     		ldr	r6, [r3, #28]
 1576              	.LVL133:
 376:Middlewares/ST/STM32_USB_Host_Library/Class/HID/Src/usbh_hid.c **** 
 1577              		.loc 1 376 3 is_stmt 1 view .LVU495
 378:Middlewares/ST/STM32_USB_Host_Library/Class/HID/Src/usbh_hid.c ****   {
 1578              		.loc 1 378 3 view .LVU496
 378:Middlewares/ST/STM32_USB_Host_Library/Class/HID/Src/usbh_hid.c ****   {
 1579              		.loc 1 378 21 is_stmt 0 view .LVU497
 1580 000c B478     		ldrb	r4, [r6, #2]	@ zero_extendqisi2
 378:Middlewares/ST/STM32_USB_Host_Library/Class/HID/Src/usbh_hid.c ****   {
 1581              		.loc 1 378 3 view .LVU498
 1582 000e 062C     		cmp	r4, #6
 1583 0010 6BD8     		bhi	.L117
 1584 0012 DFE804F0 		tbb	[pc, r4]
 1585              	.L108:
ARM GAS  /tmp/ccKBEJwZ.s 			page 50


 1586 0016 04       		.byte	(.L112-.L108)/2
 1587 0017 0B       		.byte	(.L111-.L108)/2
 1588 0018 6A       		.byte	(.L117-.L108)/2
 1589 0019 6A       		.byte	(.L117-.L108)/2
 1590 001a 30       		.byte	(.L110-.L108)/2
 1591 001b 27       		.byte	(.L109-.L108)/2
 1592 001c 3E       		.byte	(.L107-.L108)/2
 1593 001d 00       		.p2align 1
 1594              	.L112:
 381:Middlewares/ST/STM32_USB_Host_Library/Class/HID/Src/usbh_hid.c ****       HID_Handle->state = HID_IDLE;
 1595              		.loc 1 381 7 is_stmt 1 view .LVU499
 381:Middlewares/ST/STM32_USB_Host_Library/Class/HID/Src/usbh_hid.c ****       HID_Handle->state = HID_IDLE;
 1596              		.loc 1 381 17 is_stmt 0 view .LVU500
 1597 001e 336B     		ldr	r3, [r6, #48]
 381:Middlewares/ST/STM32_USB_Host_Library/Class/HID/Src/usbh_hid.c ****       HID_Handle->state = HID_IDLE;
 1598              		.loc 1 381 7 view .LVU501
 1599 0020 9847     		blx	r3
 1600              	.LVL134:
 382:Middlewares/ST/STM32_USB_Host_Library/Class/HID/Src/usbh_hid.c **** 
 1601              		.loc 1 382 7 is_stmt 1 view .LVU502
 382:Middlewares/ST/STM32_USB_Host_Library/Class/HID/Src/usbh_hid.c **** 
 1602              		.loc 1 382 25 is_stmt 0 view .LVU503
 1603 0022 0123     		movs	r3, #1
 1604 0024 B370     		strb	r3, [r6, #2]
 392:Middlewares/ST/STM32_USB_Host_Library/Class/HID/Src/usbh_hid.c **** 
 1605              		.loc 1 392 7 is_stmt 1 view .LVU504
 1606              	.LVL135:
 1607              	.L106:
 493:Middlewares/ST/STM32_USB_Host_Library/Class/HID/Src/usbh_hid.c **** }
 1608              		.loc 1 493 3 view .LVU505
 494:Middlewares/ST/STM32_USB_Host_Library/Class/HID/Src/usbh_hid.c **** 
 1609              		.loc 1 494 1 is_stmt 0 view .LVU506
 1610 0026 2046     		mov	r0, r4
 1611 0028 02B0     		add	sp, sp, #8
 1612              	.LCFI25:
 1613              		.cfi_remember_state
 1614              		.cfi_def_cfa_offset 16
 1615              		@ sp needed
 1616 002a 70BD     		pop	{r4, r5, r6, pc}
 1617              	.LVL136:
 1618              	.L111:
 1619              	.LCFI26:
 1620              		.cfi_restore_state
 395:Middlewares/ST/STM32_USB_Host_Library/Class/HID/Src/usbh_hid.c ****       if (status == USBH_OK)
 1621              		.loc 1 395 7 is_stmt 1 view .LVU507
 395:Middlewares/ST/STM32_USB_Host_Library/Class/HID/Src/usbh_hid.c ****       if (status == USBH_OK)
 1622              		.loc 1 395 16 is_stmt 0 view .LVU508
 1623 002c 7369     		ldr	r3, [r6, #20]
 1624 002e 327E     		ldrb	r2, [r6, #24]	@ zero_extendqisi2
 1625 0030 0092     		str	r2, [sp]
 1626 0032 0022     		movs	r2, #0
 1627 0034 0121     		movs	r1, #1
 1628 0036 FFF7FEFF 		bl	USBH_HID_GetReport
 1629              	.LVL137:
 396:Middlewares/ST/STM32_USB_Host_Library/Class/HID/Src/usbh_hid.c ****       {
 1630              		.loc 1 396 7 is_stmt 1 view .LVU509
 396:Middlewares/ST/STM32_USB_Host_Library/Class/HID/Src/usbh_hid.c ****       {
ARM GAS  /tmp/ccKBEJwZ.s 			page 51


 1631              		.loc 1 396 10 is_stmt 0 view .LVU510
 1632 003a 0446     		mov	r4, r0
 1633 003c 10B9     		cbnz	r0, .L113
 398:Middlewares/ST/STM32_USB_Host_Library/Class/HID/Src/usbh_hid.c ****       }
 1634              		.loc 1 398 9 is_stmt 1 view .LVU511
 398:Middlewares/ST/STM32_USB_Host_Library/Class/HID/Src/usbh_hid.c ****       }
 1635              		.loc 1 398 27 is_stmt 0 view .LVU512
 1636 003e 0523     		movs	r3, #5
 1637 0040 B370     		strb	r3, [r6, #2]
 1638 0042 F0E7     		b	.L106
 1639              	.L113:
 400:Middlewares/ST/STM32_USB_Host_Library/Class/HID/Src/usbh_hid.c ****       {
 1640              		.loc 1 400 12 is_stmt 1 view .LVU513
 400:Middlewares/ST/STM32_USB_Host_Library/Class/HID/Src/usbh_hid.c ****       {
 1641              		.loc 1 400 15 is_stmt 0 view .LVU514
 1642 0044 0128     		cmp	r0, #1
 1643 0046 05D0     		beq	.L123
 405:Middlewares/ST/STM32_USB_Host_Library/Class/HID/Src/usbh_hid.c ****       {
 1644              		.loc 1 405 12 is_stmt 1 view .LVU515
 405:Middlewares/ST/STM32_USB_Host_Library/Class/HID/Src/usbh_hid.c ****       {
 1645              		.loc 1 405 15 is_stmt 0 view .LVU516
 1646 0048 0328     		cmp	r0, #3
 1647 004a 07D0     		beq	.L124
 412:Middlewares/ST/STM32_USB_Host_Library/Class/HID/Src/usbh_hid.c ****         status = USBH_FAIL;
 1648              		.loc 1 412 9 is_stmt 1 view .LVU517
 412:Middlewares/ST/STM32_USB_Host_Library/Class/HID/Src/usbh_hid.c ****         status = USBH_FAIL;
 1649              		.loc 1 412 27 is_stmt 0 view .LVU518
 1650 004c 0723     		movs	r3, #7
 1651 004e B370     		strb	r3, [r6, #2]
 413:Middlewares/ST/STM32_USB_Host_Library/Class/HID/Src/usbh_hid.c ****       }
 1652              		.loc 1 413 9 is_stmt 1 view .LVU519
 1653              	.LVL138:
 413:Middlewares/ST/STM32_USB_Host_Library/Class/HID/Src/usbh_hid.c ****       }
 1654              		.loc 1 413 16 is_stmt 0 view .LVU520
 1655 0050 0224     		movs	r4, #2
 1656 0052 E8E7     		b	.L106
 1657              	.LVL139:
 1658              	.L123:
 402:Middlewares/ST/STM32_USB_Host_Library/Class/HID/Src/usbh_hid.c ****         status = USBH_OK;
 1659              		.loc 1 402 9 is_stmt 1 view .LVU521
 402:Middlewares/ST/STM32_USB_Host_Library/Class/HID/Src/usbh_hid.c ****         status = USBH_OK;
 1660              		.loc 1 402 27 is_stmt 0 view .LVU522
 1661 0054 0123     		movs	r3, #1
 1662 0056 B370     		strb	r3, [r6, #2]
 403:Middlewares/ST/STM32_USB_Host_Library/Class/HID/Src/usbh_hid.c ****       }
 1663              		.loc 1 403 9 is_stmt 1 view .LVU523
 1664              	.LVL140:
 403:Middlewares/ST/STM32_USB_Host_Library/Class/HID/Src/usbh_hid.c ****       }
 1665              		.loc 1 403 16 is_stmt 0 view .LVU524
 1666 0058 0024     		movs	r4, #0
 1667 005a E4E7     		b	.L106
 1668              	.LVL141:
 1669              	.L124:
 407:Middlewares/ST/STM32_USB_Host_Library/Class/HID/Src/usbh_hid.c ****         status = USBH_OK;
 1670              		.loc 1 407 9 is_stmt 1 view .LVU525
 407:Middlewares/ST/STM32_USB_Host_Library/Class/HID/Src/usbh_hid.c ****         status = USBH_OK;
 1671              		.loc 1 407 27 is_stmt 0 view .LVU526
ARM GAS  /tmp/ccKBEJwZ.s 			page 52


 1672 005c 0523     		movs	r3, #5
 1673 005e B370     		strb	r3, [r6, #2]
 408:Middlewares/ST/STM32_USB_Host_Library/Class/HID/Src/usbh_hid.c ****       }
 1674              		.loc 1 408 9 is_stmt 1 view .LVU527
 1675              	.LVL142:
 408:Middlewares/ST/STM32_USB_Host_Library/Class/HID/Src/usbh_hid.c ****       }
 1676              		.loc 1 408 16 is_stmt 0 view .LVU528
 1677 0060 0024     		movs	r4, #0
 1678 0062 E0E7     		b	.L106
 1679              	.LVL143:
 1680              	.L109:
 428:Middlewares/ST/STM32_USB_Host_Library/Class/HID/Src/usbh_hid.c ****       {
 1681              		.loc 1 428 7 is_stmt 1 view .LVU529
 428:Middlewares/ST/STM32_USB_Host_Library/Class/HID/Src/usbh_hid.c ****       {
 1682              		.loc 1 428 16 is_stmt 0 view .LVU530
 1683 0064 D0F8C433 		ldr	r3, [r0, #964]
 428:Middlewares/ST/STM32_USB_Host_Library/Class/HID/Src/usbh_hid.c ****       {
 1684              		.loc 1 428 10 view .LVU531
 1685 0068 13F0010F 		tst	r3, #1
 1686 006c 3FD0     		beq	.L118
 430:Middlewares/ST/STM32_USB_Host_Library/Class/HID/Src/usbh_hid.c ****       }
 1687              		.loc 1 430 9 is_stmt 1 view .LVU532
 430:Middlewares/ST/STM32_USB_Host_Library/Class/HID/Src/usbh_hid.c ****       }
 1688              		.loc 1 430 27 is_stmt 0 view .LVU533
 1689 006e 0423     		movs	r3, #4
 1690 0070 B370     		strb	r3, [r6, #2]
 374:Middlewares/ST/STM32_USB_Host_Library/Class/HID/Src/usbh_hid.c ****   HID_HandleTypeDef *HID_Handle = (HID_HandleTypeDef *) phost->pActiveClass->pData;
 1691              		.loc 1 374 22 view .LVU534
 1692 0072 0024     		movs	r4, #0
 1693 0074 D7E7     		b	.L106
 1694              	.L110:
 444:Middlewares/ST/STM32_USB_Host_Library/Class/HID/Src/usbh_hid.c ****                                 (uint8_t)HID_Handle->length,
 1695              		.loc 1 444 7 is_stmt 1 view .LVU535
 1696 0076 7378     		ldrb	r3, [r6, #1]	@ zero_extendqisi2
 1697 0078 327E     		ldrb	r2, [r6, #24]	@ zero_extendqisi2
 1698 007a 7169     		ldr	r1, [r6, #20]
 1699 007c FFF7FEFF 		bl	USBH_InterruptReceiveData
 1700              	.LVL144:
 448:Middlewares/ST/STM32_USB_Host_Library/Class/HID/Src/usbh_hid.c ****       HID_Handle->timer = phost->Timer;
 1701              		.loc 1 448 7 view .LVU536
 448:Middlewares/ST/STM32_USB_Host_Library/Class/HID/Src/usbh_hid.c ****       HID_Handle->timer = phost->Timer;
 1702              		.loc 1 448 25 is_stmt 0 view .LVU537
 1703 0080 0623     		movs	r3, #6
 1704 0082 B370     		strb	r3, [r6, #2]
 449:Middlewares/ST/STM32_USB_Host_Library/Class/HID/Src/usbh_hid.c ****       HID_Handle->DataReady = 0U;
 1705              		.loc 1 449 7 is_stmt 1 view .LVU538
 449:Middlewares/ST/STM32_USB_Host_Library/Class/HID/Src/usbh_hid.c ****       HID_Handle->DataReady = 0U;
 1706              		.loc 1 449 32 is_stmt 0 view .LVU539
 1707 0084 D5F8C433 		ldr	r3, [r5, #964]
 449:Middlewares/ST/STM32_USB_Host_Library/Class/HID/Src/usbh_hid.c ****       HID_Handle->DataReady = 0U;
 1708              		.loc 1 449 25 view .LVU540
 1709 0088 3362     		str	r3, [r6, #32]
 450:Middlewares/ST/STM32_USB_Host_Library/Class/HID/Src/usbh_hid.c ****       break;
 1710              		.loc 1 450 7 is_stmt 1 view .LVU541
 450:Middlewares/ST/STM32_USB_Host_Library/Class/HID/Src/usbh_hid.c ****       break;
 1711              		.loc 1 450 29 is_stmt 0 view .LVU542
 1712 008a 0024     		movs	r4, #0
ARM GAS  /tmp/ccKBEJwZ.s 			page 53


 1713 008c 86F82440 		strb	r4, [r6, #36]
 451:Middlewares/ST/STM32_USB_Host_Library/Class/HID/Src/usbh_hid.c **** 
 1714              		.loc 1 451 7 is_stmt 1 view .LVU543
 1715 0090 C9E7     		b	.L106
 1716              	.LVL145:
 1717              	.L107:
 454:Middlewares/ST/STM32_USB_Host_Library/Class/HID/Src/usbh_hid.c ****       {
 1718              		.loc 1 454 7 view .LVU544
 454:Middlewares/ST/STM32_USB_Host_Library/Class/HID/Src/usbh_hid.c ****       {
 1719              		.loc 1 454 11 is_stmt 0 view .LVU545
 1720 0092 7178     		ldrb	r1, [r6, #1]	@ zero_extendqisi2
 1721 0094 FFF7FEFF 		bl	USBH_LL_GetURBState
 1722              	.LVL146:
 454:Middlewares/ST/STM32_USB_Host_Library/Class/HID/Src/usbh_hid.c ****       {
 1723              		.loc 1 454 10 discriminator 1 view .LVU546
 1724 0098 0128     		cmp	r0, #1
 1725 009a 07D0     		beq	.L125
 477:Middlewares/ST/STM32_USB_Host_Library/Class/HID/Src/usbh_hid.c ****         {
 1726              		.loc 1 477 9 is_stmt 1 view .LVU547
 477:Middlewares/ST/STM32_USB_Host_Library/Class/HID/Src/usbh_hid.c ****         {
 1727              		.loc 1 477 13 is_stmt 0 view .LVU548
 1728 009c 7178     		ldrb	r1, [r6, #1]	@ zero_extendqisi2
 1729 009e 2846     		mov	r0, r5
 1730 00a0 FFF7FEFF 		bl	USBH_LL_GetURBState
 1731              	.LVL147:
 477:Middlewares/ST/STM32_USB_Host_Library/Class/HID/Src/usbh_hid.c ****         {
 1732              		.loc 1 477 12 discriminator 1 view .LVU549
 1733 00a4 0528     		cmp	r0, #5
 1734 00a6 17D0     		beq	.L126
 374:Middlewares/ST/STM32_USB_Host_Library/Class/HID/Src/usbh_hid.c ****   HID_HandleTypeDef *HID_Handle = (HID_HandleTypeDef *) phost->pActiveClass->pData;
 1735              		.loc 1 374 22 view .LVU550
 1736 00a8 0024     		movs	r4, #0
 1737 00aa BCE7     		b	.L106
 1738              	.L125:
 456:Middlewares/ST/STM32_USB_Host_Library/Class/HID/Src/usbh_hid.c **** 
 1739              		.loc 1 456 9 is_stmt 1 view .LVU551
 456:Middlewares/ST/STM32_USB_Host_Library/Class/HID/Src/usbh_hid.c **** 
 1740              		.loc 1 456 20 is_stmt 0 view .LVU552
 1741 00ac 7178     		ldrb	r1, [r6, #1]	@ zero_extendqisi2
 1742 00ae 2846     		mov	r0, r5
 1743 00b0 FFF7FEFF 		bl	USBH_LL_GetLastXferSize
 1744              	.LVL148:
 458:Middlewares/ST/STM32_USB_Host_Library/Class/HID/Src/usbh_hid.c ****         {
 1745              		.loc 1 458 9 is_stmt 1 view .LVU553
 458:Middlewares/ST/STM32_USB_Host_Library/Class/HID/Src/usbh_hid.c ****         {
 1746              		.loc 1 458 24 is_stmt 0 view .LVU554
 1747 00b4 96F82440 		ldrb	r4, [r6, #36]	@ zero_extendqisi2
 458:Middlewares/ST/STM32_USB_Host_Library/Class/HID/Src/usbh_hid.c ****         {
 1748              		.loc 1 458 12 view .LVU555
 1749 00b8 DCB9     		cbnz	r4, .L119
 458:Middlewares/ST/STM32_USB_Host_Library/Class/HID/Src/usbh_hid.c ****         {
 1750              		.loc 1 458 43 discriminator 1 view .LVU556
 1751 00ba 0028     		cmp	r0, #0
 1752 00bc B3D0     		beq	.L106
 460:Middlewares/ST/STM32_USB_Host_Library/Class/HID/Src/usbh_hid.c ****           HID_Handle->DataReady = 1U;
 1753              		.loc 1 460 11 is_stmt 1 view .LVU557
 1754 00be 328B     		ldrh	r2, [r6, #24]
ARM GAS  /tmp/ccKBEJwZ.s 			page 54


 1755 00c0 7169     		ldr	r1, [r6, #20]
 1756 00c2 06F10800 		add	r0, r6, #8
 1757              	.LVL149:
 460:Middlewares/ST/STM32_USB_Host_Library/Class/HID/Src/usbh_hid.c ****           HID_Handle->DataReady = 1U;
 1758              		.loc 1 460 11 is_stmt 0 view .LVU558
 1759 00c6 FFF7FEFF 		bl	USBH_HID_FifoWrite
 1760              	.LVL150:
 461:Middlewares/ST/STM32_USB_Host_Library/Class/HID/Src/usbh_hid.c ****           USBH_HID_EventCallback(phost);
 1761              		.loc 1 461 11 is_stmt 1 view .LVU559
 461:Middlewares/ST/STM32_USB_Host_Library/Class/HID/Src/usbh_hid.c ****           USBH_HID_EventCallback(phost);
 1762              		.loc 1 461 33 is_stmt 0 view .LVU560
 1763 00ca 0123     		movs	r3, #1
 1764 00cc 86F82430 		strb	r3, [r6, #36]
 462:Middlewares/ST/STM32_USB_Host_Library/Class/HID/Src/usbh_hid.c **** 
 1765              		.loc 1 462 11 is_stmt 1 view .LVU561
 1766 00d0 2846     		mov	r0, r5
 1767 00d2 FFF7FEFF 		bl	USBH_HID_EventCallback
 1768              	.LVL151:
 1769 00d6 A6E7     		b	.L106
 1770              	.LVL152:
 1771              	.L126:
 480:Middlewares/ST/STM32_USB_Host_Library/Class/HID/Src/usbh_hid.c ****           {
 1772              		.loc 1 480 11 view .LVU562
 480:Middlewares/ST/STM32_USB_Host_Library/Class/HID/Src/usbh_hid.c ****           {
 1773              		.loc 1 480 15 is_stmt 0 view .LVU563
 1774 00d8 B17E     		ldrb	r1, [r6, #26]	@ zero_extendqisi2
 1775 00da 2846     		mov	r0, r5
 1776 00dc FFF7FEFF 		bl	USBH_ClrFeature
 1777              	.LVL153:
 480:Middlewares/ST/STM32_USB_Host_Library/Class/HID/Src/usbh_hid.c ****           {
 1778              		.loc 1 480 14 discriminator 1 view .LVU564
 1779 00e0 0446     		mov	r4, r0
 1780 00e2 40B9     		cbnz	r0, .L121
 483:Middlewares/ST/STM32_USB_Host_Library/Class/HID/Src/usbh_hid.c ****           }
 1781              		.loc 1 483 13 is_stmt 1 view .LVU565
 483:Middlewares/ST/STM32_USB_Host_Library/Class/HID/Src/usbh_hid.c ****           }
 1782              		.loc 1 483 31 is_stmt 0 view .LVU566
 1783 00e4 0423     		movs	r3, #4
 1784 00e6 B370     		strb	r3, [r6, #2]
 1785 00e8 9DE7     		b	.L106
 1786              	.LVL154:
 1787              	.L117:
 378:Middlewares/ST/STM32_USB_Host_Library/Class/HID/Src/usbh_hid.c ****   {
 1788              		.loc 1 378 3 view .LVU567
 1789 00ea 0024     		movs	r4, #0
 1790 00ec 9BE7     		b	.L106
 1791              	.L118:
 374:Middlewares/ST/STM32_USB_Host_Library/Class/HID/Src/usbh_hid.c ****   HID_HandleTypeDef *HID_Handle = (HID_HandleTypeDef *) phost->pActiveClass->pData;
 1792              		.loc 1 374 22 view .LVU568
 1793 00ee 0024     		movs	r4, #0
 1794 00f0 99E7     		b	.L106
 1795              	.LVL155:
 1796              	.L119:
 374:Middlewares/ST/STM32_USB_Host_Library/Class/HID/Src/usbh_hid.c ****   HID_HandleTypeDef *HID_Handle = (HID_HandleTypeDef *) phost->pActiveClass->pData;
 1797              		.loc 1 374 22 view .LVU569
 1798 00f2 0024     		movs	r4, #0
 1799 00f4 97E7     		b	.L106
ARM GAS  /tmp/ccKBEJwZ.s 			page 55


 1800              	.LVL156:
 1801              	.L121:
 374:Middlewares/ST/STM32_USB_Host_Library/Class/HID/Src/usbh_hid.c ****   HID_HandleTypeDef *HID_Handle = (HID_HandleTypeDef *) phost->pActiveClass->pData;
 1802              		.loc 1 374 22 view .LVU570
 1803 00f6 0024     		movs	r4, #0
 1804 00f8 95E7     		b	.L106
 1805              		.cfi_endproc
 1806              	.LFE334:
 1808              		.global	HID_Class
 1809              		.section	.rodata.str1.4,"aMS",%progbits,1
 1810              		.align	2
 1811              	.LC0:
 1812 0000 48494400 		.ascii	"HID\000"
 1813              		.section	.data.HID_Class,"aw"
 1814              		.align	2
 1817              	HID_Class:
 1818 0000 00000000 		.word	.LC0
 1819 0004 03       		.byte	3
 1820 0005 000000   		.space	3
 1821 0008 00000000 		.word	USBH_HID_InterfaceInit
 1822 000c 00000000 		.word	USBH_HID_InterfaceDeInit
 1823 0010 00000000 		.word	USBH_HID_ClassRequest
 1824 0014 00000000 		.word	USBH_HID_Process
 1825 0018 00000000 		.word	USBH_HID_SOFProcess
 1826 001c 00000000 		.word	0
 1827              		.text
 1828              	.Letext0:
 1829              		.file 2 "/home/jyko/Embedded/arm-gnu-toolchain-13.2.rel1-x86_64-arm-none-eabi/arm-none-eabi/includ
 1830              		.file 3 "/home/jyko/Embedded/arm-gnu-toolchain-13.2.rel1-x86_64-arm-none-eabi/lib/gcc/arm-none-eab
 1831              		.file 4 "/home/jyko/Embedded/arm-gnu-toolchain-13.2.rel1-x86_64-arm-none-eabi/arm-none-eabi/includ
 1832              		.file 5 "Middlewares/ST/STM32_USB_Host_Library/Core/Inc/usbh_def.h"
 1833              		.file 6 "Middlewares/ST/STM32_USB_Host_Library/Class/HID/Inc/usbh_hid.h"
 1834              		.file 7 "Middlewares/ST/STM32_USB_Host_Library/Core/Inc/usbh_ctlreq.h"
 1835              		.file 8 "Middlewares/ST/STM32_USB_Host_Library/Core/Inc/usbh_core.h"
 1836              		.file 9 "Middlewares/ST/STM32_USB_Host_Library/Core/Inc/usbh_pipes.h"
 1837              		.file 10 "/home/jyko/Embedded/arm-gnu-toolchain-13.2.rel1-x86_64-arm-none-eabi/arm-none-eabi/inclu
 1838              		.file 11 "/home/jyko/Embedded/arm-gnu-toolchain-13.2.rel1-x86_64-arm-none-eabi/arm-none-eabi/inclu
 1839              		.file 12 "Middlewares/ST/STM32_USB_Host_Library/Core/Inc/usbh_ioreq.h"
 1840              		.file 13 "<built-in>"
ARM GAS  /tmp/ccKBEJwZ.s 			page 56

